
CH32V307VCT6.elf:     file format elf32-littleriscv
CH32V307VCT6.elf
architecture: riscv:rv32, flags 0x00000112:
EXEC_P, HAS_SYMS, D_PAGED
start address 0x00000000

Program Header:
    LOAD off    0x00001000 vaddr 0x00000000 paddr 0x00000000 align 2**12
         filesz 0x000064c4 memsz 0x000064c4 flags r-x
    LOAD off    0x00008000 vaddr 0x20000000 paddr 0x000064c4 align 2**12
         filesz 0x00000088 memsz 0x000003c0 flags rw-
    LOAD off    0x00008800 vaddr 0x20007800 paddr 0x20007800 align 2**12
         filesz 0x00000000 memsz 0x00000800 flags rw-

Sections:
Idx Name          Size      VMA       LMA       File off  Algn
  0 .init         00000038  00000000  00000000  00001000  2**1
                  CONTENTS, ALLOC, LOAD, READONLY, CODE
  1 .vector       000001c8  00000038  00000038  00001038  2**1
                  CONTENTS, ALLOC, LOAD, READONLY, CODE
  2 .text         000062c4  00000200  00000200  00001200  2**2
                  CONTENTS, ALLOC, LOAD, READONLY, CODE
  3 .fini         00000000  000064c4  000064c4  00008088  2**0
                  CONTENTS, ALLOC, LOAD, CODE
  4 .dalign       00000000  20000000  20000000  00008088  2**0
                  CONTENTS
  5 .dlalign      00000000  000064c4  000064c4  00008088  2**0
                  CONTENTS
  6 .data         00000088  20000000  000064c4  00008000  2**2
                  CONTENTS, ALLOC, LOAD, DATA
  7 .bss          00000338  20000088  0000654c  00008088  2**2
                  ALLOC
  8 .stack        00000800  20007800  20007800  00008800  2**0
                  ALLOC
  9 .debug_info   00010add  00000000  00000000  00008088  2**0
                  CONTENTS, READONLY, DEBUGGING
 10 .debug_abbrev 00002a6b  00000000  00000000  00018b65  2**0
                  CONTENTS, READONLY, DEBUGGING
 11 .debug_aranges 00000978  00000000  00000000  0001b5d0  2**3
                  CONTENTS, READONLY, DEBUGGING
 12 .debug_ranges 000008f0  00000000  00000000  0001bf48  2**3
                  CONTENTS, READONLY, DEBUGGING
 13 .debug_line   0000e57c  00000000  00000000  0001c838  2**0
                  CONTENTS, READONLY, DEBUGGING
 14 .debug_str    0000352b  00000000  00000000  0002adb4  2**0
                  CONTENTS, READONLY, DEBUGGING
 15 .comment      00000033  00000000  00000000  0002e2df  2**0
                  CONTENTS, READONLY
 16 .debug_frame  00001c0c  00000000  00000000  0002e314  2**2
                  CONTENTS, READONLY, DEBUGGING
 17 .debug_loc    00004390  00000000  00000000  0002ff20  2**0
                  CONTENTS, READONLY, DEBUGGING
 18 .stab         00000084  00000000  00000000  000342b0  2**2
                  CONTENTS, READONLY, DEBUGGING
 19 .stabstr      00000117  00000000  00000000  00034334  2**0
                  CONTENTS, READONLY, DEBUGGING
SYMBOL TABLE:
00000000 l    d  .init	00000000 .init
00000038 l    d  .vector	00000000 .vector
00000200 l    d  .text	00000000 .text
000064c4 l    d  .fini	00000000 .fini
20000000 l    d  .dalign	00000000 .dalign
000064c4 l    d  .dlalign	00000000 .dlalign
20000000 l    d  .data	00000000 .data
20000088 l    d  .bss	00000000 .bss
20007800 l    d  .stack	00000000 .stack
00000000 l    d  .debug_info	00000000 .debug_info
00000000 l    d  .debug_abbrev	00000000 .debug_abbrev
00000000 l    d  .debug_aranges	00000000 .debug_aranges
00000000 l    d  .debug_ranges	00000000 .debug_ranges
00000000 l    d  .debug_line	00000000 .debug_line
00000000 l    d  .debug_str	00000000 .debug_str
00000000 l    d  .comment	00000000 .comment
00000000 l    d  .debug_frame	00000000 .debug_frame
00000000 l    d  .debug_loc	00000000 .debug_loc
00000000 l    d  .stab	00000000 .stab
00000000 l    d  .stabstr	00000000 .stabstr
00000000 l    df *ABS*	00000000 ./Startup/startup_ch32v30x_D8C.o
00000038 l       .vector	00000000 _vector_base
00000000 l    df *ABS*	00000000 adc.c
00000000 l    df *ABS*	00000000 ch32v30x_it.c
00000000 l    df *ABS*	00000000 led.c
00000000 l    df *ABS*	00000000 main.c
00000000 l    df *ABS*	00000000 system_ch32v30x.c
00000000 l    df *ABS*	00000000 tim.c
00000000 l    df *ABS*	00000000 ch32v30x_adc.c
00000000 l    df *ABS*	00000000 ch32v30x_gpio.c
00000000 l    df *ABS*	00000000 ch32v30x_misc.c
00000000 l    df *ABS*	00000000 ch32v30x_rcc.c
20000000 l     O .data	00000010 APBAHBPrescTable
20000074 l     O .data	00000004 ADCPrescTable
00000000 l    df *ABS*	00000000 ch32v30x_tim.c
00000000 l    df *ABS*	00000000 ch32v30x_usart.c
00000000 l    df *ABS*	00000000 ekf.c
00000000 l    df *ABS*	00000000 fast_math.c
00000000 l    df *ABS*	00000000 foc.c
00000000 l    df *ABS*	00000000 debug.c
200002fc l     O .bss	00000002 p_ms
200002fe l     O .bss	00000001 p_us
20000078 l     O .data	00000004 curbrk.5218
00000000 l    df *ABS*	00000000 printfloat.c
00000000 l    df *ABS*	00000000 libgcc2.c
00000000 l    df *ABS*	00000000 libgcc2.c
00000000 l    df *ABS*	00000000 ledf2.c
00000000 l    df *ABS*	00000000 muldf3.c
00000000 l    df *ABS*	00000000 subdf3.c
00000000 l    df *ABS*	00000000 fixdfdi.c
00000000 l    df *ABS*	00000000 floatdidf.c
00000000 l    df *ABS*	00000000 extendsfdf2.c
00000000 l    df *ABS*	00000000 libgcc2.c
00000000 l    df *ABS*	00000000 puts.c
00000000 l    df *ABS*	00000000 wbuf.c
00000000 l    df *ABS*	00000000 wsetup.c
00000000 l    df *ABS*	00000000 fflush.c
00000000 l    df *ABS*	00000000 findfp.c
000053a2 l     F .text	00000066 std
00000000 l    df *ABS*	00000000 fwalk.c
00000000 l    df *ABS*	00000000 makebuf.c
00000000 l    df *ABS*	00000000 nano-mallocr.c
00000000 l    df *ABS*	00000000 nano-mallocr.c
00000000 l    df *ABS*	00000000 sbrkr.c
00000000 l    df *ABS*	00000000 stdio.c
00000000 l    df *ABS*	00000000 writer.c
00000000 l    df *ABS*	00000000 closer.c
00000000 l    df *ABS*	00000000 fstatr.c
00000000 l    df *ABS*	00000000 isattyr.c
00000000 l    df *ABS*	00000000 lseekr.c
00000000 l    df *ABS*	00000000 mlock.c
00000000 l    df *ABS*	00000000 readr.c
00000000 l    df *ABS*	00000000 close.c
00000000 l    df *ABS*	00000000 fstat.c
00000000 l    df *ABS*	00000000 isatty.c
00000000 l    df *ABS*	00000000 lseek.c
00000000 l    df *ABS*	00000000 read.c
00000000 l    df *ABS*	00000000 libgcc2.c
00000000 l    df *ABS*	00000000 impure.c
20000010 l     O .data	00000060 impure_data
00000000 l    df *ABS*	00000000 reent.c
00002d9c g     F .text	00000106 printDouble
000007c4  w      .text	00000000 EXTI2_IRQHandler
20000184 g     O .bss	00000004 P_pred_0_1
0000080e  w      .text	00000000 TIM8_TRG_COM_IRQHandler
20000128 g     O .bss	00000004 K_1_1
00000810  w      .text	00000000 TIM8_CC_IRQHandler
0000597a g     F .text	00000028 _isatty_r
00004f74 g     F .text	000000d4 _puts_r
000059a2 g     F .text	0000002c _lseek_r
0000130a g     F .text	00000004 TIM_SetCompare2
00000846  w      .text	00000000 UART8_IRQHandler
2000034c g     O .bss	00000018 iqPI
200001a8 g     O .bss	00000004 P_pred_2_2
200000ec g     O .bss	00000004 F_3_1
00002ea2 g     F .text	00000358 print
00004c02 g     F .text	0000021c .hidden __floatdidf
000031fa g     F .text	00000024 printf
20000870 g       .data	00000000 __global_pointer$
20000190 g     O .bss	00000004 P_pred_1_0
00000208 g     F .text	00000028 .hidden __riscv_save_8
200000cc g     O .bss	00000004 F_1_1
000007ea  w      .text	00000000 TIM1_CC_IRQHandler
200000ac g     O .bss	00000004 B_2_1
000058c4 g     F .text	00000030 __sseek
00005458 g     F .text	0000006c __sinit
00005054 g     F .text	000000bc __swbuf_r
000004d0 g     F .text	00000002 HardFault_Handler
2000026c g     O .bss	00000004 f2_2_1
00005412 g     F .text	00000046 __sfmoreglue
20000140 g     O .bss	00000004 P0_0_0
00002b8c g     F .text	000000f0 printInt
000059d0 g     F .text	00000002 __malloc_unlock
20000098 g     O .bss	00000004 B_0_0
2000010c g     O .bss	00000004 H_1_0
000013f4 g     F .text	00000132 Apt_Ekf_Init
200002d0 g     O .bss	00000004 temp_2_3
00000254 g     F .text	0000000c .hidden __riscv_restore_3
00000820  w      .text	00000000 TIM6_IRQHandler
000012be g     F .text	0000000e TIM_OC1PreloadConfig
000007b0  w      .text	00000000 SysTick_Handler
000009bc g     F .text	0000000a ADC_StartCalibration
200001c4 g     O .bss	00000004 Q_0_1
200002a0 g     O .bss	00000004 temp_0_1_t
00000cc0 g     F .text	000000a6 NVIC_Init
200002d4 g     O .bss	00000004 temp_3_0
20000178 g     O .bss	00000004 P0_3_2
000007b6  w      .text	00000000 PVD_IRQHandler
20000288 g     O .bss	00000004 is_ab_0_0
20000148 g     O .bss	00000004 P0_0_2
00000816  w      .text	00000000 SDIO_IRQHandler
00000a8c g     F .text	0000001c ADC_GetITStatus
00000848  w      .text	00000000 TIM9_BRK_IRQHandler
00000240 g     F .text	00000020 .hidden __riscv_restore_10
20000092 g     O .bss	00000002 ee
200000dc g     O .bss	00000004 F_2_1
0000085c  w      .text	00000000 DMA2_Channel8_IRQHandler
000004cc g     F .text	00000004 NMI_Handler
20000260 g     O .bss	00000004 f2_1_2
00000836  w      .text	00000000 CAN2_RX1_IRQHandler
000007c6  w      .text	00000000 EXTI3_IRQHandler
200001dc g     O .bss	00000004 Q_1_3
2000028c g     O .bss	00000004 is_ab_1_0
20000204 g     O .bss	00000004 R_0_1
00000208 g     F .text	00000028 .hidden __riscv_save_11
00002516 g     F .text	0000004a PI_init
0000083e  w      .text	00000000 USBHS_IRQHandler
00005aa8 g     O .text	00000800 sin_tab
000013ea g     F .text	0000000a USART_GetFlagStatus
0000085e  w      .text	00000000 DMA2_Channel9_IRQHandler
00005950 g     F .text	0000002a _fstat_r
00000856  w      .text	00000000 TIM10_CC_IRQHandler
200003bc g     O .bss	00000004 errno
20000194 g     O .bss	00000004 P_pred_1_1
20000120 g     O .bss	00000004 K_0_1
20000088 g       .bss	00000000 _sbss
00000800 g       *ABS*	00000000 __stack_size
20000110 g     O .bss	00000004 H_1_1
000029a6 g     F .text	00000062 USART_Printf_Init
20000160 g     O .bss	00000004 P0_2_0
20000210 g     O .bss	00000004 Rs
2000009c g     O .bss	00000004 B_0_1
200002ac g     O .bss	00000004 temp_1_0
00000254 g     F .text	0000000c .hidden __riscv_restore_2
200000a0 g     O .bss	00000004 B_1_0
200000d0 g     O .bss	00000004 F_1_2
0000128e g     F .text	00000016 TIM_CtrlPWMOutputs
2000019c g     O .bss	00000004 P_pred_1_3
200002a4 g     O .bss	00000004 temp_0_2
000025b4 g     F .text	000003c8 foc_step
00000984 g     F .text	00000010 ADC_Cmd
00005408 g     F .text	0000000a _cleanup_r
00002c7c g     F .text	00000120 printLongLongInt
0000393a g     F .text	000000b6 .hidden __ltdf2
200001b0 g     O .bss	00000004 P_pred_3_0
000007c0  w      .text	00000000 EXTI0_IRQHandler
000007f6  w      .text	00000000 I2C2_EV_IRQHandler
00000854  w      .text	00000000 TIM10_TRG_COM_IRQHandler
20000088 g     O .bss	00000002 Calibrattion_Val
00001276 g     F .text	00000018 TIM_Cmd
00005048 g     F .text	0000000c puts
20000158 g     O .bss	00000004 P0_1_2
000012f0 g     F .text	00000016 TIM_OC4PreloadConfig
200001c8 g     O .bss	00000004 Q_0_2
20000070 g     O .data	00000004 SystemCoreClock
00000aa8 g     F .text	0000000a ADC_ClearITPendingBit
200002e0 g     O .bss	00000004 temp_3_3
00005a0a g     F .text	0000000c _fstat
00000038 g       .init	00000000 _einit
200001e4 g     O .bss	00000004 Q_2_1
20000134 g     O .bss	00000004 K_3_0
00000eee g     F .text	0000001e RCC_APB2PeriphClockCmd
00000200 g     F .text	00000030 .hidden __riscv_save_12
20000274 g     O .bss	00000004 f2_2_3
00000838  w      .text	00000000 CAN2_SCE_IRQHandler
0000041e g     F .text	000000ae ADC1_2_IRQHandler
200002ec g     O .bss	00000004 tempa_2_0
00000bfa g     F .text	000000c0 GPIO_Init
00000d66 g     F .text	00000012 RCC_ADCCLKConfig
000007ae  w      .text	00000000 Break_Point_Handler
200000b0 g     O .bss	00000004 B_3_0
00000240 g     F .text	00000020 .hidden __riscv_restore_11
20000094 g     O .bss	00000004 NVIC_Priority_Group
000007fa  w      .text	00000000 SPI1_IRQHandler
000009aa g     F .text	0000000a ADC_ResetCalibration
000013cc g     F .text	00000016 USART_Cmd
00005826 g     F .text	0000002a _sbrk_r
000007b8  w      .text	00000000 TAMPER_IRQHandler
00000230 g     F .text	0000000c .hidden __riscv_save_1
00000254 g     F .text	0000000c .hidden __riscv_restore_0
00001122 g     F .text	000000ac TIM_OC3Init
000059d2 g     F .text	0000002c _read_r
00000216 g     F .text	0000001a .hidden __riscv_save_7
00000834  w      .text	00000000 CAN2_RX0_IRQHandler
000009e2 g     F .text	0000007a ADC_InjectedChannelConfig
2000020c g     O .bss	00000004 R_1_1
200001a0 g     O .bss	00000004 P_pred_2_0
00004e1e g     F .text	000000e8 .hidden __extendsfdf2
0000080c  w      .text	00000000 TIM8_UP_IRQHandler
20000290 g     O .bss	00000004 temp
00000f0c g     F .text	0000001e RCC_APB1PeriphClockCmd
200000f0 g     O .bss	00000004 F_3_2
000007aa  w      .text	00000000 Ecall_M_Mode_Handler
20000154 g     O .bss	00000004 P0_1_1
20007800 g       .stack	00000000 _heap_end
20000174 g     O .bss	00000004 P0_3_1
000035b0 g     F .text	0000038a .hidden __umoddi3
00005a16 g     F .text	0000000c _isatty
20000130 g     O .bss	00000004 K_2_1
20000080 g     O .data	00000004 _global_impure_ptr
0000024a g     F .text	00000016 .hidden __riscv_restore_5
200001e0 g     O .bss	00000004 Q_2_0
00000826  w      .text	00000000 DMA2_Channel2_IRQHandler
0000321e g     F .text	00000392 .hidden __udivdi3
000007d0  w      .text	00000000 DMA1_Channel4_IRQHandler
200002e4 g     O .bss	00000004 tempa_0_0
200000bc g     O .bss	00000004 F_0_1
00002a46 g     F .text	00000026 _sbrk
200001b4 g     O .bss	00000004 P_pred_3_1
20000298 g     O .bss	00000004 temp_0_0_t
200001cc g     O .bss	00000004 Q_0_3
20000278 g     O .bss	00000004 f2_3_0
20000230 g     O .bss	00000004 Y_pred_0_0
0000084a  w      .text	00000000 TIM9_UP_IRQHandler
200000d8 g     O .bss	00000004 F_2_0
0000024a g     F .text	00000016 .hidden __riscv_restore_6
200000e4 g     O .bss	00000004 F_2_3
2000025c g     O .bss	00000004 f2_1_1
200001ac g     O .bss	00000004 P_pred_2_3
00000802  w      .text	00000000 USART3_IRQHandler
20000104 g     O .bss	00000004 H_0_2
000007ba  w      .text	00000000 RTC_IRQHandler
000009c6 g     F .text	00000008 ADC_GetCalibrationStatus
200003c0 g       .bss	00000000 _ebss
200001d8 g     O .bss	00000004 Q_1_2
000007d6  w      .text	00000000 DMA1_Channel7_IRQHandler
00000ff2 g     F .text	00000082 TIM_OC1Init
000012e2 g     F .text	0000000e TIM_OC3PreloadConfig
000009b4 g     F .text	00000008 ADC_GetResetCalibrationStatus
200002b0 g     O .bss	00000004 temp_1_0_t
000007de  w      .text	00000000 CAN1_RX1_IRQHandler
20000364 g     O .bss	00000030 rtU
0000297c g     F .text	0000002a Delay_Init
00000840  w      .text	00000000 DVP_IRQHandler
0000081e  w      .text	00000000 UART5_IRQHandler
20000114 g     O .bss	00000004 H_1_2
20000254 g     O .bss	00000004 f2_0_3
20000334 g     O .bss	00000018 idPI
20000308 g     O .bss	0000002c ekf_data
000007f0  w      .text	00000000 TIM4_IRQHandler
200002d8 g     O .bss	00000004 temp_3_1
2000017c g     O .bss	00000004 P0_3_3
0000393a g     F .text	000000b6 .hidden __ledf2
000012a4 g     F .text	0000001a TIM_ARRPreloadConfig
00000208 g     F .text	00000028 .hidden __riscv_save_9
2000022c g     O .bss	00000004 Y_1_0
00000824  w      .text	00000000 DMA2_Channel1_IRQHandler
200002c4 g     O .bss	00000004 temp_2_0
20000264 g     O .bss	00000004 f2_1_3
00006464 g     O .text	00000020 __sf_fake_stderr
00000216 g     F .text	0000001a .hidden __riscv_save_4
000007f2  w      .text	00000000 I2C1_EV_IRQHandler
20000124 g     O .bss	00000004 K_1_0
000004d2 g     F .text	00000030 GPIO_Toggle_INIT
200000a8 g     O .bss	00000004 B_2_0
2000008c g     O .bss	00000006 Curbuf
00000d78 g     F .text	00000176 RCC_GetClocksFreq
20000220 g     O .bss	00000004 X_pred_2_0
200000c4 g     O .bss	00000004 F_0_3
2000014c g     O .bss	00000004 P0_0_3
000007d4  w      .text	00000000 DMA1_Channel6_IRQHandler
00004f06 g     F .text	0000006e .hidden __clzsi2
0000081c  w      .text	00000000 UART4_IRQHandler
0000082a  w      .text	00000000 DMA2_Channel4_IRQHandler
20000248 g     O .bss	00000004 f2_0_0
00001312 g     F .text	000000ba USART_Init
200000b4 g     O .bss	00000004 B_3_1
000056b4 g     F .text	000000a4 _free_r
200000e8 g     O .bss	00000004 F_3_0
000007ee  w      .text	00000000 TIM3_IRQHandler
000007be  w      .text	00000000 RCC_IRQHandler
00000230 g     F .text	0000000c .hidden __riscv_save_3
200001ec g     O .bss	00000004 Q_2_3
200001d0 g     O .bss	00000004 Q_1_0
000007e8  w      .text	00000000 TIM1_TRG_COM_IRQHandler
000007ca  w      .text	00000000 DMA1_Channel1_IRQHandler
200002b4 g     O .bss	00000004 temp_1_1
20000214 g     O .bss	00000004 Ts
00000000 g       .init	00000000 _start
20000224 g     O .bss	00000004 X_pred_3_0
0000085a  w      .text	00000000 DMA2_Channel7_IRQHandler
00005a22 g     F .text	0000000c _lseek
000012cc g     F .text	00000016 TIM_OC2PreloadConfig
00002ab4 g     F .text	000000d8 prints
00000804  w      .text	00000000 EXTI15_10_IRQHandler
20000198 g     O .bss	00000004 P_pred_1_2
00001074 g     F .text	000000ae TIM_OC2Init
000024e6 g     F .text	00000030 foc_init
2000015c g     O .bss	00000004 P0_1_3
20000244 g     O .bss	00000004 f1_3_0
200001f8 g     O .bss	00000004 Q_3_2
00000822  w      .text	00000000 TIM7_IRQHandler
2000023c g     O .bss	00000004 f1_1_0
00005928 g     F .text	00000028 _close_r
200002bc g     O .bss	00000004 temp_1_2
00000832  w      .text	00000000 CAN2_TX_IRQHandler
20000000 g       .dalign	00000000 _data_vma
200000f8 g     O .bss	00000004 Flux
200002a8 g     O .bss	00000004 temp_0_3
00000818  w      .text	00000000 TIM5_IRQHandler
0000130e g     F .text	00000004 TIM_SetCompare3
20000284 g     O .bss	00000004 f2_3_3
200001f0 g     O .bss	00000004 Q_3_0
000011ce g     F .text	00000088 TIM_OC4Init
20000270 g     O .bss	00000004 f2_2_2
00005110 g     F .text	000000fc __swsetup_r
000007e2  w      .text	00000000 EXTI9_5_IRQHandler
000054c4 g     F .text	000000a0 __sfp
200002f0 g     O .bss	00000004 tempa_3_0
000039f0 g     F .text	00000656 .hidden __muldf3
00000208 g     F .text	00000028 .hidden __riscv_save_10
200000c0 g     O .bss	00000004 F_0_2
00005850 g     F .text	0000002c __sread
20000164 g     O .bss	00000004 P0_2_1
0000249a g     F .text	0000004c fast_sin
200000b8 g     O .bss	00000004 F_0_0
00000830  w      .text	00000000 ETH_WKUP_IRQHandler
000059ce g     F .text	00000002 __malloc_lock
0000024a g     F .text	00000016 .hidden __riscv_restore_4
00000240 g     F .text	00000020 .hidden __riscv_restore_8
0000533c g     F .text	00000066 _fflush_r
20000294 g     O .bss	00000004 temp_0_0
00000216 g     F .text	0000001a .hidden __riscv_save_6
000007fc  w      .text	00000000 SPI2_IRQHandler
00006484 g     O .text	00000020 __sf_fake_stdin
20000188 g     O .bss	00000004 P_pred_0_2
00000416 g     F .text	00000008 Current_sample_init
00000260 g     F .text	000000a8 memset
00000240 g     F .text	00000020 .hidden __riscv_restore_9
0000024a g     F .text	00000016 .hidden __riscv_restore_7
00000502 g     F .text	0000006e main
00000850  w      .text	00000000 TIM10_BRK_IRQHandler
0000084e  w      .text	00000000 TIM9_CC_IRQHandler
200002f8 g     O .bss	00000004 vs_ab_1_0
20000250 g     O .bss	00000004 f2_0_2
000058f4 g     F .text	00000006 __sclose
0000082c  w      .text	00000000 DMA2_Channel5_IRQHandler
00005758 g     F .text	000000ce _malloc_r
200001f4 g     O .bss	00000004 Q_3_1
20000228 g     O .bss	00000004 Y_0_0
00000aca g     F .text	00000130 Get_CalibrationValue
000007d2  w      .text	00000000 DMA1_Channel5_IRQHandler
000007c8  w      .text	00000000 EXTI4_IRQHandler
20000268 g     O .bss	00000004 f2_2_0
000007dc  w      .text	00000000 USB_LP_CAN1_RX0_IRQHandler
20000150 g     O .bss	00000004 P0_1_0
2000027c g     O .bss	00000004 f2_3_1
20000170 g     O .bss	00000004 P0_3_0
20000234 g     O .bss	00000004 Y_pred_1_0
00000ab2 g     F .text	00000018 ADC_BufferCmd
200002cc g     O .bss	00000004 temp_2_2
200000fc g     O .bss	00000004 H_0_0
00000570 g     F .text	000000f8 SystemInit
00000812  w      .text	00000000 RNG_IRQHandler
00002a6c g     F .text	00000048 printchar
2000021c g     O .bss	00000004 X_pred_1_0
00000a5c g     F .text	00000014 ADC_InjectedSequencerLengthConfig
200001b8 g     O .bss	00000004 P_pred_3_2
000007da  w      .text	00000000 USB_HP_CAN1_TX_IRQHandler
00006364 g     O .text	00000100 .hidden __clz_tab
00000000 g       .init	00000000 _sinit
00004ad2 g     F .text	00000130 .hidden __fixdfdi
000058fa g     F .text	0000002e _write_r
200002e8 g     O .bss	00000004 tempa_1_0
200002b8 g     O .bss	00000004 temp_1_1_t
000007ce  w      .text	00000000 DMA1_Channel3_IRQHandler
20000144 g     O .bss	00000004 P0_0_1
2000016c g     O .bss	00000004 P0_2_3
00000814  w      .text	00000000 FSMC_IRQHandler
00000994 g     F .text	00000016 ADC_ITConfig
0000082e  w      .text	00000000 ETH_IRQHandler
2000007c g     O .data	00000004 _impure_ptr
20000258 g     O .bss	00000004 f2_1_0
20000240 g     O .bss	00000004 f1_2_0
00000308 g     F .text	0000010e ADC_Function_Init
000007e6  w      .text	00000000 TIM1_UP_IRQHandler
0000520c g     F .text	00000130 __sflush_r
00002560 g     F .text	00000010 All_foc_init
000007b4  w      .text	00000000 WWDG_IRQHandler
0000083c  w      .text	00000000 USBHSWakeup_IRQHandler
00000862  w      .text	00000000 DMA2_Channel11_IRQHandler
000007ac  w      .text	00000000 Ecall_U_Mode_Handler
2000012c g     O .bss	00000004 K_2_0
200001e8 g     O .bss	00000004 Q_2_2
20000218 g     O .bss	00000004 X_pred_0_0
00000858  w      .text	00000000 DMA2_Channel6_IRQHandler
2000011c g     O .bss	00000004 K_0_0
000007ec  w      .text	00000000 TIM2_IRQHandler
20000208 g     O .bss	00000004 R_1_0
20008000 g       .stack	00000000 _eusrstack
00000230 g     F .text	0000000c .hidden __riscv_save_2
000007b2  w      .text	00000000 SW_Handler
200000e0 g     O .bss	00000004 F_2_2
00000668 g     F .text	0000013e TIM1_PWMOut_Init
000008ee g     F .text	00000040 ADC_DeInit
2000018c g     O .bss	00000004 P_pred_0_3
000007e4  w      .text	00000000 TIM1_BRK_IRQHandler
000009ce g     F .text	00000014 ADC_ExternalTrigInjectedConvCmd
000055ce g     F .text	00000056 __swhatbuf_r
0000092e g     F .text	00000056 ADC_Init
000013e2 g     F .text	00000008 USART_SendData
00000860  w      .text	00000000 DMA2_Channel10_IRQHandler
200002c8 g     O .bss	00000004 temp_2_1
000007c2  w      .text	00000000 EXTI1_IRQHandler
00000216 g     F .text	0000001a .hidden __riscv_save_5
20000394 g     O .bss	00000028 rtY
00002a08 g     F .text	0000003e _write
20000088 g       .data	00000000 _edata
200003c0 g       .bss	00000000 _end
20000180 g     O .bss	00000004 P_pred_0_0
200000d4 g     O .bss	00000004 F_1_3
00000f48 g     F .text	000000aa TIM_TimeBaseInit
00000806  w      .text	00000000 RTCAlarm_IRQHandler
00000a70 g     F .text	0000001c ADC_GetInjectedConversionValue
000064c4 g       .dlalign	00000000 _data_lma
00000852  w      .text	00000000 TIM10_UP_IRQHandler
0000084c  w      .text	00000000 TIM9_TRG_COM_IRQHandler
00000844  w      .text	00000000 UART7_IRQHandler
00000800  w      .text	00000000 USART2_IRQHandler
00000842  w      .text	00000000 UART6_IRQHandler
0000587c g     F .text	00000048 __swrite
20000100 g     O .bss	00000004 H_0_1
200000f4 g     O .bss	00000004 F_3_3
00005564 g     F .text	0000006a _fwalk_reent
200001d4 g     O .bss	00000004 Q_1_1
20000138 g     O .bss	00000004 K_3_1
200001bc g     O .bss	00000004 P_pred_3_3
000007f8  w      .text	00000000 I2C2_ER_IRQHandler
200000c8 g     O .bss	00000004 F_1_0
000007cc  w      .text	00000000 DMA1_Channel2_IRQHandler
000064a4 g     O .text	00000020 __sf_fake_stdout
20000108 g     O .bss	00000004 H_0_3
200001c0 g     O .bss	00000004 Q_0_0
0000023c g     F .text	00000024 .hidden __riscv_restore_12
0000080a  w      .text	00000000 TIM8_BRK_IRQHandler
00005a2e g     F .text	0000000c _read
00001256 g     F .text	00000020 TIM_BDTRConfig
00000864  w      .text	00000000 handle_reset
000007e0  w      .text	00000000 CAN1_SCE_IRQHandler
200002dc g     O .bss	00000004 temp_3_2
000007bc  w      .text	00000000 FLASH_IRQHandler
00000230 g     F .text	0000000c .hidden __riscv_save_0
200002c0 g     O .bss	00000004 temp_1_3
20000118 g     O .bss	00000004 H_1_3
000007fe  w      .text	00000000 USART1_IRQHandler
00005624 g     F .text	00000090 __smakebuf_r
0000083a  w      .text	00000000 OTG_FS_IRQHandler
00001526 g     F .text	00000f74 Apt_Ekf_Update
0000081a  w      .text	00000000 SPI3_IRQHandler
200000a4 g     O .bss	00000004 B_1_1
20000304 g     O .bss	00000004 __malloc_sbrk_start
200001a4 g     O .bss	00000004 P_pred_2_1
2000013c g     O .bss	00000004 Ls
00000f2a g     F .text	0000001e RCC_APB2PeriphResetCmd
000007f4  w      .text	00000000 I2C1_ER_IRQHandler
00002570 g     F .text	00000044 PI_control
00000cba g     F .text	00000006 NVIC_PriorityGroupConfig
20000238 g     O .bss	00000004 f1_0_0
20000300 g     O .bss	00000004 __malloc_free_list
00000254 g     F .text	0000000c .hidden __riscv_restore_1
00004046 g     F .text	00000a8c .hidden __subdf3
20000280 g     O .bss	00000004 f2_3_2
00001306 g     F .text	00000004 TIM_SetCompare1
200002f4 g     O .bss	00000004 vs_ab_0_0
20000200 g     O .bss	00000004 R_0_0
20000168 g     O .bss	00000004 P0_2_2
00000808  w      .text	00000000 USBWakeUp_IRQHandler
2000024c g     O .bss	00000004 f2_0_1
000059fe g     F .text	0000000c _close
2000029c g     O .bss	00000004 temp_0_1
00000828  w      .text	00000000 DMA2_Channel3_IRQHandler
200001fc g     O .bss	00000004 Q_3_3



Disassembly of section .init:

00000000 <_sinit>:
   0:	0650006f          	j	864 <handle_reset>
   4:	00000013          	nop
   8:	00000013          	nop
   c:	00000013          	nop
  10:	00000013          	nop
  14:	00000013          	nop
  18:	00000013          	nop
  1c:	00000013          	nop
  20:	00000013          	nop
  24:	00000013          	nop
  28:	00000013          	nop
  2c:	00000013          	nop
  30:	00000013          	nop
  34:	00100073          	ebreak

Disassembly of section .vector:

00000038 <_vector_base>:
	...
  40:	04cc                	addi	a1,sp,580
  42:	0000                	unimp
  44:	04d0                	addi	a2,sp,580
  46:	0000                	unimp
  48:	0000                	unimp
  4a:	0000                	unimp
  4c:	07aa                	slli	a5,a5,0xa
	...
  56:	0000                	unimp
  58:	07ac                	addi	a1,sp,968
  5a:	0000                	unimp
  5c:	07ae                	slli	a5,a5,0xb
	...
  66:	0000                	unimp
  68:	07b0                	addi	a2,sp,968
  6a:	0000                	unimp
  6c:	0000                	unimp
  6e:	0000                	unimp
  70:	07b2                	slli	a5,a5,0xc
  72:	0000                	unimp
  74:	0000                	unimp
  76:	0000                	unimp
  78:	07b4                	addi	a3,sp,968
  7a:	0000                	unimp
  7c:	07b6                	slli	a5,a5,0xd
  7e:	0000                	unimp
  80:	07b8                	addi	a4,sp,968
  82:	0000                	unimp
  84:	07ba                	slli	a5,a5,0xe
  86:	0000                	unimp
  88:	07bc                	addi	a5,sp,968
  8a:	0000                	unimp
  8c:	07be                	slli	a5,a5,0xf
  8e:	0000                	unimp
  90:	07c0                	addi	s0,sp,964
  92:	0000                	unimp
  94:	07c2                	slli	a5,a5,0x10
  96:	0000                	unimp
  98:	07c4                	addi	s1,sp,964
  9a:	0000                	unimp
  9c:	07c6                	slli	a5,a5,0x11
  9e:	0000                	unimp
  a0:	07c8                	addi	a0,sp,964
  a2:	0000                	unimp
  a4:	07ca                	slli	a5,a5,0x12
  a6:	0000                	unimp
  a8:	07cc                	addi	a1,sp,964
  aa:	0000                	unimp
  ac:	07ce                	slli	a5,a5,0x13
  ae:	0000                	unimp
  b0:	07d0                	addi	a2,sp,964
  b2:	0000                	unimp
  b4:	07d2                	slli	a5,a5,0x14
  b6:	0000                	unimp
  b8:	07d4                	addi	a3,sp,964
  ba:	0000                	unimp
  bc:	07d6                	slli	a5,a5,0x15
  be:	0000                	unimp
  c0:	041e                	slli	s0,s0,0x7
  c2:	0000                	unimp
  c4:	07da                	slli	a5,a5,0x16
  c6:	0000                	unimp
  c8:	07dc                	addi	a5,sp,964
  ca:	0000                	unimp
  cc:	07de                	slli	a5,a5,0x17
  ce:	0000                	unimp
  d0:	07e0                	addi	s0,sp,972
  d2:	0000                	unimp
  d4:	07e2                	slli	a5,a5,0x18
  d6:	0000                	unimp
  d8:	07e4                	addi	s1,sp,972
  da:	0000                	unimp
  dc:	07e6                	slli	a5,a5,0x19
  de:	0000                	unimp
  e0:	07e8                	addi	a0,sp,972
  e2:	0000                	unimp
  e4:	07ea                	slli	a5,a5,0x1a
  e6:	0000                	unimp
  e8:	07ec                	addi	a1,sp,972
  ea:	0000                	unimp
  ec:	07ee                	slli	a5,a5,0x1b
  ee:	0000                	unimp
  f0:	07f0                	addi	a2,sp,972
  f2:	0000                	unimp
  f4:	07f2                	slli	a5,a5,0x1c
  f6:	0000                	unimp
  f8:	07f4                	addi	a3,sp,972
  fa:	0000                	unimp
  fc:	07f6                	slli	a5,a5,0x1d
  fe:	0000                	unimp
 100:	07f8                	addi	a4,sp,972
 102:	0000                	unimp
 104:	07fa                	slli	a5,a5,0x1e
 106:	0000                	unimp
 108:	07fc                	addi	a5,sp,972
 10a:	0000                	unimp
 10c:	07fe                	slli	a5,a5,0x1f
 10e:	0000                	unimp
 110:	0800                	addi	s0,sp,16
 112:	0000                	unimp
 114:	0802                	c.slli64	a6
 116:	0000                	unimp
 118:	0804                	addi	s1,sp,16
 11a:	0000                	unimp
 11c:	0806                	slli	a6,a6,0x1
 11e:	0000                	unimp
 120:	0808                	addi	a0,sp,16
 122:	0000                	unimp
 124:	080a                	slli	a6,a6,0x2
 126:	0000                	unimp
 128:	080c                	addi	a1,sp,16
 12a:	0000                	unimp
 12c:	080e                	slli	a6,a6,0x3
 12e:	0000                	unimp
 130:	0810                	addi	a2,sp,16
 132:	0000                	unimp
 134:	0812                	slli	a6,a6,0x4
 136:	0000                	unimp
 138:	0814                	addi	a3,sp,16
 13a:	0000                	unimp
 13c:	0816                	slli	a6,a6,0x5
 13e:	0000                	unimp
 140:	0818                	addi	a4,sp,16
 142:	0000                	unimp
 144:	081a                	slli	a6,a6,0x6
 146:	0000                	unimp
 148:	081c                	addi	a5,sp,16
 14a:	0000                	unimp
 14c:	081e                	slli	a6,a6,0x7
 14e:	0000                	unimp
 150:	0820                	addi	s0,sp,24
 152:	0000                	unimp
 154:	0822                	slli	a6,a6,0x8
 156:	0000                	unimp
 158:	0824                	addi	s1,sp,24
 15a:	0000                	unimp
 15c:	0826                	slli	a6,a6,0x9
 15e:	0000                	unimp
 160:	0828                	addi	a0,sp,24
 162:	0000                	unimp
 164:	082a                	slli	a6,a6,0xa
 166:	0000                	unimp
 168:	082c                	addi	a1,sp,24
 16a:	0000                	unimp
 16c:	082e                	slli	a6,a6,0xb
 16e:	0000                	unimp
 170:	0830                	addi	a2,sp,24
 172:	0000                	unimp
 174:	0832                	slli	a6,a6,0xc
 176:	0000                	unimp
 178:	0834                	addi	a3,sp,24
 17a:	0000                	unimp
 17c:	0836                	slli	a6,a6,0xd
 17e:	0000                	unimp
 180:	0838                	addi	a4,sp,24
 182:	0000                	unimp
 184:	083a                	slli	a6,a6,0xe
 186:	0000                	unimp
 188:	083c                	addi	a5,sp,24
 18a:	0000                	unimp
 18c:	083e                	slli	a6,a6,0xf
 18e:	0000                	unimp
 190:	0840                	addi	s0,sp,20
 192:	0000                	unimp
 194:	0842                	slli	a6,a6,0x10
 196:	0000                	unimp
 198:	0844                	addi	s1,sp,20
 19a:	0000                	unimp
 19c:	0846                	slli	a6,a6,0x11
 19e:	0000                	unimp
 1a0:	0848                	addi	a0,sp,20
 1a2:	0000                	unimp
 1a4:	084a                	slli	a6,a6,0x12
 1a6:	0000                	unimp
 1a8:	084c                	addi	a1,sp,20
 1aa:	0000                	unimp
 1ac:	084e                	slli	a6,a6,0x13
 1ae:	0000                	unimp
 1b0:	0850                	addi	a2,sp,20
 1b2:	0000                	unimp
 1b4:	0852                	slli	a6,a6,0x14
 1b6:	0000                	unimp
 1b8:	0854                	addi	a3,sp,20
 1ba:	0000                	unimp
 1bc:	0856                	slli	a6,a6,0x15
 1be:	0000                	unimp
 1c0:	0858                	addi	a4,sp,20
 1c2:	0000                	unimp
 1c4:	085a                	slli	a6,a6,0x16
 1c6:	0000                	unimp
 1c8:	085c                	addi	a5,sp,20
 1ca:	0000                	unimp
 1cc:	085e                	slli	a6,a6,0x17
 1ce:	0000                	unimp
 1d0:	0860                	addi	s0,sp,28
 1d2:	0000                	unimp
 1d4:	0862                	slli	a6,a6,0x18
	...

Disassembly of section .text:

00000200 <__riscv_save_12>:
     200:	7139                	addi	sp,sp,-64
     202:	4301                	li	t1,0
     204:	c66e                	sw	s11,12(sp)
     206:	a019                	j	20c <__riscv_save_10+0x4>

00000208 <__riscv_save_10>:
     208:	7139                	addi	sp,sp,-64
     20a:	5341                	li	t1,-16
     20c:	c86a                	sw	s10,16(sp)
     20e:	ca66                	sw	s9,20(sp)
     210:	cc62                	sw	s8,24(sp)
     212:	ce5e                	sw	s7,28(sp)
     214:	a019                	j	21a <__riscv_save_4+0x4>

00000216 <__riscv_save_4>:
     216:	7139                	addi	sp,sp,-64
     218:	5301                	li	t1,-32
     21a:	d05a                	sw	s6,32(sp)
     21c:	d256                	sw	s5,36(sp)
     21e:	d452                	sw	s4,40(sp)
     220:	d64e                	sw	s3,44(sp)
     222:	d84a                	sw	s2,48(sp)
     224:	da26                	sw	s1,52(sp)
     226:	dc22                	sw	s0,56(sp)
     228:	de06                	sw	ra,60(sp)
     22a:	40610133          	sub	sp,sp,t1
     22e:	8282                	jr	t0

00000230 <__riscv_save_0>:
     230:	1141                	addi	sp,sp,-16
     232:	c04a                	sw	s2,0(sp)
     234:	c226                	sw	s1,4(sp)
     236:	c422                	sw	s0,8(sp)
     238:	c606                	sw	ra,12(sp)
     23a:	8282                	jr	t0

0000023c <__riscv_restore_12>:
     23c:	4db2                	lw	s11,12(sp)
     23e:	0141                	addi	sp,sp,16

00000240 <__riscv_restore_10>:
     240:	4d02                	lw	s10,0(sp)
     242:	4c92                	lw	s9,4(sp)
     244:	4c22                	lw	s8,8(sp)
     246:	4bb2                	lw	s7,12(sp)
     248:	0141                	addi	sp,sp,16

0000024a <__riscv_restore_4>:
     24a:	4b02                	lw	s6,0(sp)
     24c:	4a92                	lw	s5,4(sp)
     24e:	4a22                	lw	s4,8(sp)
     250:	49b2                	lw	s3,12(sp)
     252:	0141                	addi	sp,sp,16

00000254 <__riscv_restore_0>:
     254:	4902                	lw	s2,0(sp)
     256:	4492                	lw	s1,4(sp)
     258:	4422                	lw	s0,8(sp)
     25a:	40b2                	lw	ra,12(sp)
     25c:	0141                	addi	sp,sp,16
     25e:	8082                	ret

00000260 <memset>:
     260:	433d                	li	t1,15
     262:	872a                	mv	a4,a0
     264:	02c37363          	bgeu	t1,a2,28a <memset+0x2a>
     268:	00f77793          	andi	a5,a4,15
     26c:	efbd                	bnez	a5,2ea <memset+0x8a>
     26e:	e5ad                	bnez	a1,2d8 <memset+0x78>
     270:	ff067693          	andi	a3,a2,-16
     274:	8a3d                	andi	a2,a2,15
     276:	96ba                	add	a3,a3,a4
     278:	c30c                	sw	a1,0(a4)
     27a:	c34c                	sw	a1,4(a4)
     27c:	c70c                	sw	a1,8(a4)
     27e:	c74c                	sw	a1,12(a4)
     280:	0741                	addi	a4,a4,16
     282:	fed76be3          	bltu	a4,a3,278 <memset+0x18>
     286:	e211                	bnez	a2,28a <memset+0x2a>
     288:	8082                	ret
     28a:	40c306b3          	sub	a3,t1,a2
     28e:	068a                	slli	a3,a3,0x2
     290:	00000297          	auipc	t0,0x0
     294:	9696                	add	a3,a3,t0
     296:	00a68067          	jr	10(a3)
     29a:	00b70723          	sb	a1,14(a4)
     29e:	00b706a3          	sb	a1,13(a4)
     2a2:	00b70623          	sb	a1,12(a4)
     2a6:	00b705a3          	sb	a1,11(a4)
     2aa:	00b70523          	sb	a1,10(a4)
     2ae:	00b704a3          	sb	a1,9(a4)
     2b2:	00b70423          	sb	a1,8(a4)
     2b6:	00b703a3          	sb	a1,7(a4)
     2ba:	00b70323          	sb	a1,6(a4)
     2be:	00b702a3          	sb	a1,5(a4)
     2c2:	00b70223          	sb	a1,4(a4)
     2c6:	00b701a3          	sb	a1,3(a4)
     2ca:	00b70123          	sb	a1,2(a4)
     2ce:	00b700a3          	sb	a1,1(a4)
     2d2:	00b70023          	sb	a1,0(a4)
     2d6:	8082                	ret
     2d8:	0ff5f593          	andi	a1,a1,255
     2dc:	00859693          	slli	a3,a1,0x8
     2e0:	8dd5                	or	a1,a1,a3
     2e2:	01059693          	slli	a3,a1,0x10
     2e6:	8dd5                	or	a1,a1,a3
     2e8:	b761                	j	270 <memset+0x10>
     2ea:	00279693          	slli	a3,a5,0x2
     2ee:	00000297          	auipc	t0,0x0
     2f2:	9696                	add	a3,a3,t0
     2f4:	8286                	mv	t0,ra
     2f6:	fa8680e7          	jalr	-88(a3)
     2fa:	8096                	mv	ra,t0
     2fc:	17c1                	addi	a5,a5,-16
     2fe:	8f1d                	sub	a4,a4,a5
     300:	963e                	add	a2,a2,a5
     302:	f8c374e3          	bgeu	t1,a2,28a <memset+0x2a>
     306:	b7a5                	j	26e <memset+0xe>

00000308 <ADC_Function_Init>:
     308:	f29ff2ef          	jal	t0,230 <__riscv_save_0>
     30c:	7139                	addi	sp,sp,-64
     30e:	02000613          	li	a2,32
     312:	4581                	li	a1,0
     314:	1008                	addi	a0,sp,32
     316:	37a9                	jal	260 <memset>
     318:	4585                	li	a1,1
     31a:	4511                	li	a0,4
     31c:	ca02                	sw	zero,20(sp)
     31e:	cc02                	sw	zero,24(sp)
     320:	ce02                	sw	zero,28(sp)
     322:	c602                	sw	zero,12(sp)
     324:	c802                	sw	zero,16(sp)
     326:	3c9000ef          	jal	ra,eee <RCC_APB2PeriphClockCmd>
     32a:	4585                	li	a1,1
     32c:	20000513          	li	a0,512
     330:	3bf000ef          	jal	ra,eee <RCC_APB2PeriphClockCmd>
     334:	6531                	lui	a0,0xc
     336:	231000ef          	jal	ra,d66 <RCC_ADCCLKConfig>
     33a:	40011537          	lui	a0,0x40011
     33e:	47b9                	li	a5,14
     340:	084c                	addi	a1,sp,20
     342:	80050513          	addi	a0,a0,-2048 # 40010800 <_eusrstack+0x20008800>
     346:	40012437          	lui	s0,0x40012
     34a:	82fc                	sh	a5,20(sp)
     34c:	ce02                	sw	zero,28(sp)
     34e:	0ad000ef          	jal	ra,bfa <GPIO_Init>
     352:	40040513          	addi	a0,s0,1024 # 40012400 <_eusrstack+0x2000a400>
     356:	2b61                	jal	8ee <ADC_DeInit>
     358:	6785                	lui	a5,0x1
     35a:	4485                	li	s1,1
     35c:	100c                	addi	a1,sp,32
     35e:	40040513          	addi	a0,s0,1024
     362:	d63e                	sw	a5,44(sp)
     364:	d226                	sw	s1,36(sp)
     366:	02910a23          	sb	s1,52(sp)
     36a:	d002                	sw	zero,32(sp)
     36c:	d402                	sw	zero,40(sp)
     36e:	d802                	sw	zero,48(sp)
     370:	2b7d                	jal	92e <ADC_Init>
     372:	458d                	li	a1,3
     374:	40040513          	addi	a0,s0,1024
     378:	6e4000ef          	jal	ra,a5c <ADC_InjectedSequencerLengthConfig>
     37c:	4699                	li	a3,6
     37e:	4605                	li	a2,1
     380:	4585                	li	a1,1
     382:	40040513          	addi	a0,s0,1024
     386:	2db1                	jal	9e2 <ADC_InjectedChannelConfig>
     388:	4699                	li	a3,6
     38a:	4609                	li	a2,2
     38c:	4589                	li	a1,2
     38e:	40040513          	addi	a0,s0,1024
     392:	2d81                	jal	9e2 <ADC_InjectedChannelConfig>
     394:	4699                	li	a3,6
     396:	460d                	li	a2,3
     398:	458d                	li	a1,3
     39a:	40040513          	addi	a0,s0,1024
     39e:	2591                	jal	9e2 <ADC_InjectedChannelConfig>
     3a0:	4585                	li	a1,1
     3a2:	40040513          	addi	a0,s0,1024
     3a6:	2525                	jal	9ce <ADC_ExternalTrigInjectedConvCmd>
     3a8:	22200793          	li	a5,546
     3ac:	0068                	addi	a0,sp,12
     3ae:	867c                	sh	a5,12(sp)
     3b0:	c826                	sw	s1,16(sp)
     3b2:	00010723          	sb	zero,14(sp)
     3b6:	10b000ef          	jal	ra,cc0 <NVIC_Init>
     3ba:	4605                	li	a2,1
     3bc:	48000593          	li	a1,1152
     3c0:	40040513          	addi	a0,s0,1024
     3c4:	2bc1                	jal	994 <ADC_ITConfig>
     3c6:	4585                	li	a1,1
     3c8:	40040513          	addi	a0,s0,1024
     3cc:	2b65                	jal	984 <ADC_Cmd>
     3ce:	4581                	li	a1,0
     3d0:	40040513          	addi	a0,s0,1024
     3d4:	6de000ef          	jal	ra,ab2 <ADC_BufferCmd>
     3d8:	40040513          	addi	a0,s0,1024
     3dc:	23f9                	jal	9aa <ADC_ResetCalibration>
     3de:	40040493          	addi	s1,s0,1024
     3e2:	8526                	mv	a0,s1
     3e4:	2bc1                	jal	9b4 <ADC_GetResetCalibrationStatus>
     3e6:	fd75                	bnez	a0,3e2 <ADC_Function_Init+0xda>
     3e8:	40040513          	addi	a0,s0,1024
     3ec:	40012437          	lui	s0,0x40012
     3f0:	23f1                	jal	9bc <ADC_StartCalibration>
     3f2:	40040493          	addi	s1,s0,1024 # 40012400 <_eusrstack+0x2000a400>
     3f6:	8526                	mv	a0,s1
     3f8:	23f9                	jal	9c6 <ADC_GetCalibrationStatus>
     3fa:	fd75                	bnez	a0,3f6 <ADC_Function_Init+0xee>
     3fc:	40040513          	addi	a0,s0,1024
     400:	6ca000ef          	jal	ra,aca <Get_CalibrationValue>
     404:	80a19c23          	sh	a0,-2024(gp) # 20000088 <_edata>
     408:	4585                	li	a1,1
     40a:	40040513          	addi	a0,s0,1024
     40e:	6a4000ef          	jal	ra,ab2 <ADC_BufferCmd>
     412:	6121                	addi	sp,sp,64
     414:	b581                	j	254 <__riscv_restore_0>

00000416 <Current_sample_init>:
     416:	e1bff2ef          	jal	t0,230 <__riscv_save_0>
     41a:	35fd                	jal	308 <ADC_Function_Init>
     41c:	bd25                	j	254 <__riscv_restore_0>

0000041e <ADC1_2_IRQHandler>:
     41e:	711d                	addi	sp,sp,-96
     420:	cca6                	sw	s1,88(sp)
     422:	400124b7          	lui	s1,0x40012
     426:	48000593          	li	a1,1152
     42a:	40048513          	addi	a0,s1,1024 # 40012400 <_eusrstack+0x2000a400>
     42e:	cea2                	sw	s0,92(sp)
     430:	e682                	fsw	ft0,76(sp)
     432:	e486                	fsw	ft1,72(sp)
     434:	e28a                	fsw	ft2,68(sp)
     436:	e08e                	fsw	ft3,64(sp)
     438:	fe12                	fsw	ft4,60(sp)
     43a:	fc16                	fsw	ft5,56(sp)
     43c:	fa1a                	fsw	ft6,52(sp)
     43e:	f81e                	fsw	ft7,48(sp)
     440:	f62a                	fsw	fa0,44(sp)
     442:	f42e                	fsw	fa1,40(sp)
     444:	f232                	fsw	fa2,36(sp)
     446:	f036                	fsw	fa3,32(sp)
     448:	ee3a                	fsw	fa4,28(sp)
     44a:	ec3e                	fsw	fa5,24(sp)
     44c:	ea42                	fsw	fa6,20(sp)
     44e:	e846                	fsw	fa7,16(sp)
     450:	e672                	fsw	ft8,12(sp)
     452:	e476                	fsw	ft9,8(sp)
     454:	e27a                	fsw	ft10,4(sp)
     456:	e07e                	fsw	ft11,0(sp)
     458:	2d15                	jal	a8c <ADC_GetITStatus>
     45a:	c90d                	beqz	a0,48c <ADC1_2_IRQHandler+0x6e>
     45c:	45d1                	li	a1,20
     45e:	40048513          	addi	a0,s1,1024
     462:	2539                	jal	a70 <ADC_GetInjectedConversionValue>
     464:	81c18413          	addi	s0,gp,-2020 # 2000008c <Curbuf>
     468:	a00a                	sh	a0,0(s0)
     46a:	45e1                	li	a1,24
     46c:	40048513          	addi	a0,s1,1024
     470:	2501                	jal	a70 <ADC_GetInjectedConversionValue>
     472:	a02a                	sh	a0,2(s0)
     474:	45f1                	li	a1,28
     476:	40048513          	addi	a0,s1,1024
     47a:	2bdd                	jal	a70 <ADC_GetInjectedConversionValue>
     47c:	82218793          	addi	a5,gp,-2014 # 20000092 <ee>
     480:	239a                	lhu	a4,0(a5)
     482:	a04a                	sh	a0,4(s0)
     484:	0705                	addi	a4,a4,1
     486:	a39a                	sh	a4,0(a5)
     488:	12c020ef          	jal	ra,25b4 <foc_step>
     48c:	40012537          	lui	a0,0x40012
     490:	48000593          	li	a1,1152
     494:	40050513          	addi	a0,a0,1024 # 40012400 <_eusrstack+0x2000a400>
     498:	2d01                	jal	aa8 <ADC_ClearITPendingBit>
     49a:	4476                	lw	s0,92(sp)
     49c:	44e6                	lw	s1,88(sp)
     49e:	6036                	flw	ft0,76(sp)
     4a0:	60a6                	flw	ft1,72(sp)
     4a2:	6116                	flw	ft2,68(sp)
     4a4:	6186                	flw	ft3,64(sp)
     4a6:	7272                	flw	ft4,60(sp)
     4a8:	72e2                	flw	ft5,56(sp)
     4aa:	7352                	flw	ft6,52(sp)
     4ac:	73c2                	flw	ft7,48(sp)
     4ae:	7532                	flw	fa0,44(sp)
     4b0:	75a2                	flw	fa1,40(sp)
     4b2:	7612                	flw	fa2,36(sp)
     4b4:	7682                	flw	fa3,32(sp)
     4b6:	6772                	flw	fa4,28(sp)
     4b8:	67e2                	flw	fa5,24(sp)
     4ba:	6852                	flw	fa6,20(sp)
     4bc:	68c2                	flw	fa7,16(sp)
     4be:	6e32                	flw	ft8,12(sp)
     4c0:	6ea2                	flw	ft9,8(sp)
     4c2:	6f12                	flw	ft10,4(sp)
     4c4:	6f82                	flw	ft11,0(sp)
     4c6:	6125                	addi	sp,sp,96
     4c8:	30200073          	mret

000004cc <NMI_Handler>:
     4cc:	30200073          	mret

000004d0 <HardFault_Handler>:
     4d0:	a001                	j	4d0 <HardFault_Handler>

000004d2 <GPIO_Toggle_INIT>:
     4d2:	d5fff2ef          	jal	t0,230 <__riscv_save_0>
     4d6:	1141                	addi	sp,sp,-16
     4d8:	4585                	li	a1,1
     4da:	4511                	li	a0,4
     4dc:	c202                	sw	zero,4(sp)
     4de:	c402                	sw	zero,8(sp)
     4e0:	c602                	sw	zero,12(sp)
     4e2:	20d000ef          	jal	ra,eee <RCC_APB2PeriphClockCmd>
     4e6:	77e1                	lui	a5,0xffff8
     4e8:	827c                	sh	a5,4(sp)
     4ea:	40011537          	lui	a0,0x40011
     4ee:	47c1                	li	a5,16
     4f0:	c63e                	sw	a5,12(sp)
     4f2:	004c                	addi	a1,sp,4
     4f4:	478d                	li	a5,3
     4f6:	80050513          	addi	a0,a0,-2048 # 40010800 <_eusrstack+0x20008800>
     4fa:	c43e                	sw	a5,8(sp)
     4fc:	2dfd                	jal	bfa <GPIO_Init>
     4fe:	0141                	addi	sp,sp,16
     500:	bb91                	j	254 <__riscv_restore_0>

00000502 <main>:
     502:	d2fff2ef          	jal	t0,230 <__riscv_save_0>
     506:	1141                	addi	sp,sp,-16
     508:	4509                	li	a0,2
     50a:	7b0000ef          	jal	ra,cba <NVIC_PriorityGroupConfig>
     50e:	2aa9                	jal	668 <TIM1_PWMOut_Init>
     510:	3719                	jal	416 <Current_sample_init>
     512:	46a020ef          	jal	ra,297c <Delay_Init>
     516:	6571                	lui	a0,0x1c
     518:	20050513          	addi	a0,a0,512 # 1c200 <_data_lma+0x15d3c>
     51c:	48a020ef          	jal	ra,29a6 <USART_Printf_Init>
     520:	3f4d                	jal	4d2 <GPIO_Toggle_INIT>
     522:	03e020ef          	jal	ra,2560 <All_foc_init>
     526:	200007b7          	lui	a5,0x20000
     52a:	0707a583          	lw	a1,112(a5) # 20000070 <SystemCoreClock>
     52e:	00006537          	lui	a0,0x6
     532:	a3c50513          	addi	a0,a0,-1476 # 5a3c <_read+0xe>
     536:	4c5020ef          	jal	ra,31fa <printf>
     53a:	00006537          	lui	a0,0x6
     53e:	a4c50513          	addi	a0,a0,-1460 # 5a4c <_read+0x1e>
     542:	307040ef          	jal	ra,5048 <puts>
     546:	af418413          	addi	s0,gp,-1292 # 20000364 <rtU>
     54a:	000064b7          	lui	s1,0x6
     54e:	7448                	flw	fa0,44(s0)
     550:	0cf040ef          	jal	ra,4e1e <__extendsfdf2>
     554:	7408                	flw	fa0,40(s0)
     556:	c42a                	sw	a0,8(sp)
     558:	c62e                	sw	a1,12(sp)
     55a:	0c5040ef          	jal	ra,4e1e <__extendsfdf2>
     55e:	4722                	lw	a4,8(sp)
     560:	47b2                	lw	a5,12(sp)
     562:	862a                	mv	a2,a0
     564:	86ae                	mv	a3,a1
     566:	a6448513          	addi	a0,s1,-1436 # 5a64 <_read+0x36>
     56a:	491020ef          	jal	ra,31fa <printf>
     56e:	b7c5                	j	54e <main+0x4c>

00000570 <SystemInit>:
     570:	400217b7          	lui	a5,0x40021
     574:	4398                	lw	a4,0(a5)
     576:	f8ff06b7          	lui	a3,0xf8ff0
     57a:	1141                	addi	sp,sp,-16
     57c:	00176713          	ori	a4,a4,1
     580:	c398                	sw	a4,0(a5)
     582:	43d8                	lw	a4,4(a5)
     584:	00020637          	lui	a2,0x20
     588:	8f75                	and	a4,a4,a3
     58a:	c3d8                	sw	a4,4(a5)
     58c:	4398                	lw	a4,0(a5)
     58e:	fef706b7          	lui	a3,0xfef70
     592:	16fd                	addi	a3,a3,-1
     594:	8f75                	and	a4,a4,a3
     596:	c398                	sw	a4,0(a5)
     598:	4398                	lw	a4,0(a5)
     59a:	fffc06b7          	lui	a3,0xfffc0
     59e:	16fd                	addi	a3,a3,-1
     5a0:	8f75                	and	a4,a4,a3
     5a2:	c398                	sw	a4,0(a5)
     5a4:	43d8                	lw	a4,4(a5)
     5a6:	ff8106b7          	lui	a3,0xff810
     5aa:	16fd                	addi	a3,a3,-1
     5ac:	8f75                	and	a4,a4,a3
     5ae:	c3d8                	sw	a4,4(a5)
     5b0:	4398                	lw	a4,0(a5)
     5b2:	ec0006b7          	lui	a3,0xec000
     5b6:	16fd                	addi	a3,a3,-1
     5b8:	8f75                	and	a4,a4,a3
     5ba:	c398                	sw	a4,0(a5)
     5bc:	00ff0737          	lui	a4,0xff0
     5c0:	c798                	sw	a4,8(a5)
     5c2:	0207a623          	sw	zero,44(a5) # 4002102c <_eusrstack+0x2001902c>
     5c6:	c402                	sw	zero,8(sp)
     5c8:	c602                	sw	zero,12(sp)
     5ca:	4398                	lw	a4,0(a5)
     5cc:	66c1                	lui	a3,0x10
     5ce:	8f55                	or	a4,a4,a3
     5d0:	c398                	sw	a4,0(a5)
     5d2:	400216b7          	lui	a3,0x40021
     5d6:	6705                	lui	a4,0x1
     5d8:	429c                	lw	a5,0(a3)
     5da:	8ff1                	and	a5,a5,a2
     5dc:	c63e                	sw	a5,12(sp)
     5de:	47a2                	lw	a5,8(sp)
     5e0:	0785                	addi	a5,a5,1
     5e2:	c43e                	sw	a5,8(sp)
     5e4:	47b2                	lw	a5,12(sp)
     5e6:	e781                	bnez	a5,5ee <SystemInit+0x7e>
     5e8:	47a2                	lw	a5,8(sp)
     5ea:	fee797e3          	bne	a5,a4,5d8 <SystemInit+0x68>
     5ee:	400217b7          	lui	a5,0x40021
     5f2:	439c                	lw	a5,0(a5)
     5f4:	00e79713          	slli	a4,a5,0xe
     5f8:	06075663          	bgez	a4,664 <SystemInit+0xf4>
     5fc:	4785                	li	a5,1
     5fe:	c63e                	sw	a5,12(sp)
     600:	4732                	lw	a4,12(sp)
     602:	4785                	li	a5,1
     604:	04f71e63          	bne	a4,a5,660 <SystemInit+0xf0>
     608:	400217b7          	lui	a5,0x40021
     60c:	43d8                	lw	a4,4(a5)
     60e:	ffc106b7          	lui	a3,0xffc10
     612:	16fd                	addi	a3,a3,-1
     614:	c3d8                	sw	a4,4(a5)
     616:	43d8                	lw	a4,4(a5)
     618:	c3d8                	sw	a4,4(a5)
     61a:	43d8                	lw	a4,4(a5)
     61c:	40076713          	ori	a4,a4,1024
     620:	c3d8                	sw	a4,4(a5)
     622:	43d8                	lw	a4,4(a5)
     624:	8f75                	and	a4,a4,a3
     626:	c3d8                	sw	a4,4(a5)
     628:	43d8                	lw	a4,4(a5)
     62a:	66c1                	lui	a3,0x10
     62c:	8f55                	or	a4,a4,a3
     62e:	c3d8                	sw	a4,4(a5)
     630:	4398                	lw	a4,0(a5)
     632:	010006b7          	lui	a3,0x1000
     636:	8f55                	or	a4,a4,a3
     638:	c398                	sw	a4,0(a5)
     63a:	4398                	lw	a4,0(a5)
     63c:	00671693          	slli	a3,a4,0x6
     640:	fe06dde3          	bgez	a3,63a <SystemInit+0xca>
     644:	43d8                	lw	a4,4(a5)
     646:	400216b7          	lui	a3,0x40021
     64a:	9b71                	andi	a4,a4,-4
     64c:	c3d8                	sw	a4,4(a5)
     64e:	43d8                	lw	a4,4(a5)
     650:	00276713          	ori	a4,a4,2
     654:	c3d8                	sw	a4,4(a5)
     656:	4721                	li	a4,8
     658:	42dc                	lw	a5,4(a3)
     65a:	8bb1                	andi	a5,a5,12
     65c:	fee79ee3          	bne	a5,a4,658 <SystemInit+0xe8>
     660:	0141                	addi	sp,sp,16
     662:	8082                	ret
     664:	c602                	sw	zero,12(sp)
     666:	bf69                	j	600 <SystemInit+0x90>

00000668 <TIM1_PWMOut_Init>:
     668:	bc9ff2ef          	jal	t0,230 <__riscv_save_0>
     66c:	6505                	lui	a0,0x1
     66e:	7139                	addi	sp,sp,-64
     670:	4585                	li	a1,1
     672:	80c50513          	addi	a0,a0,-2036 # 80c <TIM8_UP_IRQHandler>
     676:	ca02                	sw	zero,20(sp)
     678:	cc02                	sw	zero,24(sp)
     67a:	ce02                	sw	zero,28(sp)
     67c:	d802                	sw	zero,48(sp)
     67e:	da02                	sw	zero,52(sp)
     680:	dc02                	sw	zero,56(sp)
     682:	de02                	sw	zero,60(sp)
     684:	c402                	sw	zero,8(sp)
     686:	c602                	sw	zero,12(sp)
     688:	00011823          	sh	zero,16(sp)
     68c:	d002                	sw	zero,32(sp)
     68e:	d202                	sw	zero,36(sp)
     690:	d402                	sw	zero,40(sp)
     692:	02011623          	sh	zero,44(sp)
     696:	059000ef          	jal	ra,eee <RCC_APB2PeriphClockCmd>
     69a:	40011437          	lui	s0,0x40011
     69e:	6785                	lui	a5,0x1
     6a0:	f0078793          	addi	a5,a5,-256 # f00 <RCC_APB2PeriphClockCmd+0x12>
     6a4:	4961                	li	s2,24
     6a6:	448d                	li	s1,3
     6a8:	084c                	addi	a1,sp,20
     6aa:	80040513          	addi	a0,s0,-2048 # 40010800 <_eusrstack+0x20008800>
     6ae:	82fc                	sh	a5,20(sp)
     6b0:	ce4a                	sw	s2,28(sp)
     6b2:	cc26                	sw	s1,24(sp)
     6b4:	2399                	jal	bfa <GPIO_Init>
     6b6:	77f9                	lui	a5,0xffffe
     6b8:	084c                	addi	a1,sp,20
     6ba:	c0040513          	addi	a0,s0,-1024
     6be:	82fc                	sh	a5,20(sp)
     6c0:	ce4a                	sw	s2,28(sp)
     6c2:	cc26                	sw	s1,24(sp)
     6c4:	2b1d                	jal	bfa <GPIO_Init>
     6c6:	002007b7          	lui	a5,0x200
     6ca:	c43e                	sw	a5,8(sp)
     6cc:	010027b7          	lui	a5,0x1002
     6d0:	40013437          	lui	s0,0x40013
     6d4:	c2078793          	addi	a5,a5,-992 # 1001c20 <_data_lma+0xffb75c>
     6d8:	c63e                	sw	a5,12(sp)
     6da:	002c                	addi	a1,sp,8
     6dc:	4785                	li	a5,1
     6de:	c0040513          	addi	a0,s0,-1024 # 40012c00 <_eusrstack+0x2000ac00>
     6e2:	00f10823          	sb	a5,16(sp)
     6e6:	64c1                	lui	s1,0x10
     6e8:	061000ef          	jal	ra,f48 <TIM_TimeBaseInit>
     6ec:	06048793          	addi	a5,s1,96 # 10060 <_data_lma+0x9b9c>
     6f0:	d83e                	sw	a5,48(sp)
     6f2:	0e1007b7          	lui	a5,0xe100
     6f6:	0791                	addi	a5,a5,4
     6f8:	180c                	addi	a1,sp,48
     6fa:	c0040513          	addi	a0,s0,-1024
     6fe:	da3e                	sw	a5,52(sp)
     700:	dc02                	sw	zero,56(sp)
     702:	de02                	sw	zero,60(sp)
     704:	0ef000ef          	jal	ra,ff2 <TIM_OC1Init>
     708:	180c                	addi	a1,sp,48
     70a:	c0040513          	addi	a0,s0,-1024
     70e:	167000ef          	jal	ra,1074 <TIM_OC2Init>
     712:	180c                	addi	a1,sp,48
     714:	c0040513          	addi	a0,s0,-1024
     718:	20b000ef          	jal	ra,1122 <TIM_OC3Init>
     71c:	000f07b7          	lui	a5,0xf0
     720:	d23e                	sw	a5,36(sp)
     722:	200007b7          	lui	a5,0x20000
     726:	d43e                	sw	a5,40(sp)
     728:	100c                	addi	a1,sp,32
     72a:	6791                	lui	a5,0x4
     72c:	c0040513          	addi	a0,s0,-1024
     730:	02f11623          	sh	a5,44(sp)
     734:	d002                	sw	zero,32(sp)
     736:	321000ef          	jal	ra,1256 <TIM_BDTRConfig>
     73a:	6789                	lui	a5,0x2
     73c:	c1e78793          	addi	a5,a5,-994 # 1c1e <Apt_Ekf_Update+0x6f8>
     740:	180c                	addi	a1,sp,48
     742:	c0040513          	addi	a0,s0,-1024
     746:	07048493          	addi	s1,s1,112
     74a:	02f11b23          	sh	a5,54(sp)
     74e:	d826                	sw	s1,48(sp)
     750:	02011c23          	sh	zero,56(sp)
     754:	02011e23          	sh	zero,60(sp)
     758:	277000ef          	jal	ra,11ce <TIM_OC4Init>
     75c:	c0040513          	addi	a0,s0,-1024
     760:	4585                	li	a1,1
     762:	32d000ef          	jal	ra,128e <TIM_CtrlPWMOutputs>
     766:	c0040513          	addi	a0,s0,-1024
     76a:	45a1                	li	a1,8
     76c:	353000ef          	jal	ra,12be <TIM_OC1PreloadConfig>
     770:	c0040513          	addi	a0,s0,-1024
     774:	45a1                	li	a1,8
     776:	357000ef          	jal	ra,12cc <TIM_OC2PreloadConfig>
     77a:	c0040513          	addi	a0,s0,-1024
     77e:	45a1                	li	a1,8
     780:	363000ef          	jal	ra,12e2 <TIM_OC3PreloadConfig>
     784:	c0040513          	addi	a0,s0,-1024
     788:	45a1                	li	a1,8
     78a:	367000ef          	jal	ra,12f0 <TIM_OC4PreloadConfig>
     78e:	c0040513          	addi	a0,s0,-1024
     792:	4581                	li	a1,0
     794:	311000ef          	jal	ra,12a4 <TIM_ARRPreloadConfig>
     798:	4585                	li	a1,1
     79a:	c0040513          	addi	a0,s0,-1024
     79e:	2d9000ef          	jal	ra,1276 <TIM_Cmd>
     7a2:	6121                	addi	sp,sp,64
     7a4:	bc45                	j	254 <__riscv_restore_0>
     7a6:	a001                	j	7a6 <TIM1_PWMOut_Init+0x13e>
     7a8:	a001                	j	7a8 <TIM1_PWMOut_Init+0x140>

000007aa <Ecall_M_Mode_Handler>:
     7aa:	a001                	j	7aa <Ecall_M_Mode_Handler>

000007ac <Ecall_U_Mode_Handler>:
     7ac:	a001                	j	7ac <Ecall_U_Mode_Handler>

000007ae <Break_Point_Handler>:
     7ae:	a001                	j	7ae <Break_Point_Handler>

000007b0 <SysTick_Handler>:
     7b0:	a001                	j	7b0 <SysTick_Handler>

000007b2 <SW_Handler>:
     7b2:	a001                	j	7b2 <SW_Handler>

000007b4 <WWDG_IRQHandler>:
     7b4:	a001                	j	7b4 <WWDG_IRQHandler>

000007b6 <PVD_IRQHandler>:
     7b6:	a001                	j	7b6 <PVD_IRQHandler>

000007b8 <TAMPER_IRQHandler>:
     7b8:	a001                	j	7b8 <TAMPER_IRQHandler>

000007ba <RTC_IRQHandler>:
     7ba:	a001                	j	7ba <RTC_IRQHandler>

000007bc <FLASH_IRQHandler>:
     7bc:	a001                	j	7bc <FLASH_IRQHandler>

000007be <RCC_IRQHandler>:
     7be:	a001                	j	7be <RCC_IRQHandler>

000007c0 <EXTI0_IRQHandler>:
     7c0:	a001                	j	7c0 <EXTI0_IRQHandler>

000007c2 <EXTI1_IRQHandler>:
     7c2:	a001                	j	7c2 <EXTI1_IRQHandler>

000007c4 <EXTI2_IRQHandler>:
     7c4:	a001                	j	7c4 <EXTI2_IRQHandler>

000007c6 <EXTI3_IRQHandler>:
     7c6:	a001                	j	7c6 <EXTI3_IRQHandler>

000007c8 <EXTI4_IRQHandler>:
     7c8:	a001                	j	7c8 <EXTI4_IRQHandler>

000007ca <DMA1_Channel1_IRQHandler>:
     7ca:	a001                	j	7ca <DMA1_Channel1_IRQHandler>

000007cc <DMA1_Channel2_IRQHandler>:
     7cc:	a001                	j	7cc <DMA1_Channel2_IRQHandler>

000007ce <DMA1_Channel3_IRQHandler>:
     7ce:	a001                	j	7ce <DMA1_Channel3_IRQHandler>

000007d0 <DMA1_Channel4_IRQHandler>:
     7d0:	a001                	j	7d0 <DMA1_Channel4_IRQHandler>

000007d2 <DMA1_Channel5_IRQHandler>:
     7d2:	a001                	j	7d2 <DMA1_Channel5_IRQHandler>

000007d4 <DMA1_Channel6_IRQHandler>:
     7d4:	a001                	j	7d4 <DMA1_Channel6_IRQHandler>

000007d6 <DMA1_Channel7_IRQHandler>:
     7d6:	a001                	j	7d6 <DMA1_Channel7_IRQHandler>
     7d8:	a001                	j	7d8 <DMA1_Channel7_IRQHandler+0x2>

000007da <USB_HP_CAN1_TX_IRQHandler>:
     7da:	a001                	j	7da <USB_HP_CAN1_TX_IRQHandler>

000007dc <USB_LP_CAN1_RX0_IRQHandler>:
     7dc:	a001                	j	7dc <USB_LP_CAN1_RX0_IRQHandler>

000007de <CAN1_RX1_IRQHandler>:
     7de:	a001                	j	7de <CAN1_RX1_IRQHandler>

000007e0 <CAN1_SCE_IRQHandler>:
     7e0:	a001                	j	7e0 <CAN1_SCE_IRQHandler>

000007e2 <EXTI9_5_IRQHandler>:
     7e2:	a001                	j	7e2 <EXTI9_5_IRQHandler>

000007e4 <TIM1_BRK_IRQHandler>:
     7e4:	a001                	j	7e4 <TIM1_BRK_IRQHandler>

000007e6 <TIM1_UP_IRQHandler>:
     7e6:	a001                	j	7e6 <TIM1_UP_IRQHandler>

000007e8 <TIM1_TRG_COM_IRQHandler>:
     7e8:	a001                	j	7e8 <TIM1_TRG_COM_IRQHandler>

000007ea <TIM1_CC_IRQHandler>:
     7ea:	a001                	j	7ea <TIM1_CC_IRQHandler>

000007ec <TIM2_IRQHandler>:
     7ec:	a001                	j	7ec <TIM2_IRQHandler>

000007ee <TIM3_IRQHandler>:
     7ee:	a001                	j	7ee <TIM3_IRQHandler>

000007f0 <TIM4_IRQHandler>:
     7f0:	a001                	j	7f0 <TIM4_IRQHandler>

000007f2 <I2C1_EV_IRQHandler>:
     7f2:	a001                	j	7f2 <I2C1_EV_IRQHandler>

000007f4 <I2C1_ER_IRQHandler>:
     7f4:	a001                	j	7f4 <I2C1_ER_IRQHandler>

000007f6 <I2C2_EV_IRQHandler>:
     7f6:	a001                	j	7f6 <I2C2_EV_IRQHandler>

000007f8 <I2C2_ER_IRQHandler>:
     7f8:	a001                	j	7f8 <I2C2_ER_IRQHandler>

000007fa <SPI1_IRQHandler>:
     7fa:	a001                	j	7fa <SPI1_IRQHandler>

000007fc <SPI2_IRQHandler>:
     7fc:	a001                	j	7fc <SPI2_IRQHandler>

000007fe <USART1_IRQHandler>:
     7fe:	a001                	j	7fe <USART1_IRQHandler>

00000800 <USART2_IRQHandler>:
     800:	a001                	j	800 <USART2_IRQHandler>

00000802 <USART3_IRQHandler>:
     802:	a001                	j	802 <USART3_IRQHandler>

00000804 <EXTI15_10_IRQHandler>:
     804:	a001                	j	804 <EXTI15_10_IRQHandler>

00000806 <RTCAlarm_IRQHandler>:
     806:	a001                	j	806 <RTCAlarm_IRQHandler>

00000808 <USBWakeUp_IRQHandler>:
     808:	a001                	j	808 <USBWakeUp_IRQHandler>

0000080a <TIM8_BRK_IRQHandler>:
     80a:	a001                	j	80a <TIM8_BRK_IRQHandler>

0000080c <TIM8_UP_IRQHandler>:
     80c:	a001                	j	80c <TIM8_UP_IRQHandler>

0000080e <TIM8_TRG_COM_IRQHandler>:
     80e:	a001                	j	80e <TIM8_TRG_COM_IRQHandler>

00000810 <TIM8_CC_IRQHandler>:
     810:	a001                	j	810 <TIM8_CC_IRQHandler>

00000812 <RNG_IRQHandler>:
     812:	a001                	j	812 <RNG_IRQHandler>

00000814 <FSMC_IRQHandler>:
     814:	a001                	j	814 <FSMC_IRQHandler>

00000816 <SDIO_IRQHandler>:
     816:	a001                	j	816 <SDIO_IRQHandler>

00000818 <TIM5_IRQHandler>:
     818:	a001                	j	818 <TIM5_IRQHandler>

0000081a <SPI3_IRQHandler>:
     81a:	a001                	j	81a <SPI3_IRQHandler>

0000081c <UART4_IRQHandler>:
     81c:	a001                	j	81c <UART4_IRQHandler>

0000081e <UART5_IRQHandler>:
     81e:	a001                	j	81e <UART5_IRQHandler>

00000820 <TIM6_IRQHandler>:
     820:	a001                	j	820 <TIM6_IRQHandler>

00000822 <TIM7_IRQHandler>:
     822:	a001                	j	822 <TIM7_IRQHandler>

00000824 <DMA2_Channel1_IRQHandler>:
     824:	a001                	j	824 <DMA2_Channel1_IRQHandler>

00000826 <DMA2_Channel2_IRQHandler>:
     826:	a001                	j	826 <DMA2_Channel2_IRQHandler>

00000828 <DMA2_Channel3_IRQHandler>:
     828:	a001                	j	828 <DMA2_Channel3_IRQHandler>

0000082a <DMA2_Channel4_IRQHandler>:
     82a:	a001                	j	82a <DMA2_Channel4_IRQHandler>

0000082c <DMA2_Channel5_IRQHandler>:
     82c:	a001                	j	82c <DMA2_Channel5_IRQHandler>

0000082e <ETH_IRQHandler>:
     82e:	a001                	j	82e <ETH_IRQHandler>

00000830 <ETH_WKUP_IRQHandler>:
     830:	a001                	j	830 <ETH_WKUP_IRQHandler>

00000832 <CAN2_TX_IRQHandler>:
     832:	a001                	j	832 <CAN2_TX_IRQHandler>

00000834 <CAN2_RX0_IRQHandler>:
     834:	a001                	j	834 <CAN2_RX0_IRQHandler>

00000836 <CAN2_RX1_IRQHandler>:
     836:	a001                	j	836 <CAN2_RX1_IRQHandler>

00000838 <CAN2_SCE_IRQHandler>:
     838:	a001                	j	838 <CAN2_SCE_IRQHandler>

0000083a <OTG_FS_IRQHandler>:
     83a:	a001                	j	83a <OTG_FS_IRQHandler>

0000083c <USBHSWakeup_IRQHandler>:
     83c:	a001                	j	83c <USBHSWakeup_IRQHandler>

0000083e <USBHS_IRQHandler>:
     83e:	a001                	j	83e <USBHS_IRQHandler>

00000840 <DVP_IRQHandler>:
     840:	a001                	j	840 <DVP_IRQHandler>

00000842 <UART6_IRQHandler>:
     842:	a001                	j	842 <UART6_IRQHandler>

00000844 <UART7_IRQHandler>:
     844:	a001                	j	844 <UART7_IRQHandler>

00000846 <UART8_IRQHandler>:
     846:	a001                	j	846 <UART8_IRQHandler>

00000848 <TIM9_BRK_IRQHandler>:
     848:	a001                	j	848 <TIM9_BRK_IRQHandler>

0000084a <TIM9_UP_IRQHandler>:
     84a:	a001                	j	84a <TIM9_UP_IRQHandler>

0000084c <TIM9_TRG_COM_IRQHandler>:
     84c:	a001                	j	84c <TIM9_TRG_COM_IRQHandler>

0000084e <TIM9_CC_IRQHandler>:
     84e:	a001                	j	84e <TIM9_CC_IRQHandler>

00000850 <TIM10_BRK_IRQHandler>:
     850:	a001                	j	850 <TIM10_BRK_IRQHandler>

00000852 <TIM10_UP_IRQHandler>:
     852:	a001                	j	852 <TIM10_UP_IRQHandler>

00000854 <TIM10_TRG_COM_IRQHandler>:
     854:	a001                	j	854 <TIM10_TRG_COM_IRQHandler>

00000856 <TIM10_CC_IRQHandler>:
     856:	a001                	j	856 <TIM10_CC_IRQHandler>

00000858 <DMA2_Channel6_IRQHandler>:
     858:	a001                	j	858 <DMA2_Channel6_IRQHandler>

0000085a <DMA2_Channel7_IRQHandler>:
     85a:	a001                	j	85a <DMA2_Channel7_IRQHandler>

0000085c <DMA2_Channel8_IRQHandler>:
     85c:	a001                	j	85c <DMA2_Channel8_IRQHandler>

0000085e <DMA2_Channel9_IRQHandler>:
     85e:	a001                	j	85e <DMA2_Channel9_IRQHandler>

00000860 <DMA2_Channel10_IRQHandler>:
     860:	a001                	j	860 <DMA2_Channel10_IRQHandler>

00000862 <DMA2_Channel11_IRQHandler>:
     862:	a001                	j	862 <DMA2_Channel11_IRQHandler>

00000864 <handle_reset>:
     864:	20000197          	auipc	gp,0x20000
     868:	00c18193          	addi	gp,gp,12 # 20000870 <__global_pointer$>
     86c:	20007117          	auipc	sp,0x20007
     870:	79410113          	addi	sp,sp,1940 # 20008000 <_eusrstack>
     874:	00006517          	auipc	a0,0x6
     878:	c5050513          	addi	a0,a0,-944 # 64c4 <_data_lma>
     87c:	1ffff597          	auipc	a1,0x1ffff
     880:	78458593          	addi	a1,a1,1924 # 20000000 <_data_vma>
     884:	81818613          	addi	a2,gp,-2024 # 20000088 <_edata>
     888:	00c5fa63          	bgeu	a1,a2,89c <handle_reset+0x38>
     88c:	00052283          	lw	t0,0(a0)
     890:	0055a023          	sw	t0,0(a1)
     894:	0511                	addi	a0,a0,4
     896:	0591                	addi	a1,a1,4
     898:	fec5eae3          	bltu	a1,a2,88c <handle_reset+0x28>
     89c:	81818513          	addi	a0,gp,-2024 # 20000088 <_edata>
     8a0:	b5018593          	addi	a1,gp,-1200 # 200003c0 <_ebss>
     8a4:	00b57763          	bgeu	a0,a1,8b2 <handle_reset+0x4e>
     8a8:	00052023          	sw	zero,0(a0)
     8ac:	0511                	addi	a0,a0,4
     8ae:	feb56de3          	bltu	a0,a1,8a8 <handle_reset+0x44>
     8b2:	42fd                	li	t0,31
     8b4:	bc029073          	csrw	0xbc0,t0
     8b8:	42ad                	li	t0,11
     8ba:	80429073          	csrw	0x804,t0
     8be:	000062b7          	lui	t0,0x6
     8c2:	08828293          	addi	t0,t0,136 # 6088 <sin_tab+0x5e0>
     8c6:	3002a073          	csrs	mstatus,t0
     8ca:	fffff297          	auipc	t0,0xfffff
     8ce:	76e28293          	addi	t0,t0,1902 # 38 <_einit>
     8d2:	0032e293          	ori	t0,t0,3
     8d6:	30529073          	csrw	mtvec,t0
     8da:	c97ff0ef          	jal	ra,570 <SystemInit>
     8de:	00000297          	auipc	t0,0x0
     8e2:	c2428293          	addi	t0,t0,-988 # 502 <main>
     8e6:	34129073          	csrw	mepc,t0
     8ea:	30200073          	mret

000008ee <ADC_DeInit>:
     8ee:	943ff2ef          	jal	t0,230 <__riscv_save_0>
     8f2:	400127b7          	lui	a5,0x40012
     8f6:	40078793          	addi	a5,a5,1024 # 40012400 <_eusrstack+0x2000a400>
     8fa:	00f51c63          	bne	a0,a5,912 <ADC_DeInit+0x24>
     8fe:	4585                	li	a1,1
     900:	20000513          	li	a0,512
     904:	251d                	jal	f2a <RCC_APB2PeriphResetCmd>
     906:	4581                	li	a1,0
     908:	20000513          	li	a0,512
     90c:	2d39                	jal	f2a <RCC_APB2PeriphResetCmd>
     90e:	947ff06f          	j	254 <__riscv_restore_0>
     912:	400137b7          	lui	a5,0x40013
     916:	80078793          	addi	a5,a5,-2048 # 40012800 <_eusrstack+0x2000a800>
     91a:	fef51ae3          	bne	a0,a5,90e <ADC_DeInit+0x20>
     91e:	4585                	li	a1,1
     920:	40000513          	li	a0,1024
     924:	2519                	jal	f2a <RCC_APB2PeriphResetCmd>
     926:	4581                	li	a1,0
     928:	40000513          	li	a0,1024
     92c:	b7c5                	j	90c <ADC_DeInit+0x1e>

0000092e <ADC_Init>:
     92e:	415c                	lw	a5,4(a0)
     930:	e0f10737          	lui	a4,0xe0f10
     934:	eff70713          	addi	a4,a4,-257 # e0f0feff <_eusrstack+0xc0f07eff>
     938:	4d94                	lw	a3,24(a1)
     93a:	8f7d                	and	a4,a4,a5
     93c:	419c                	lw	a5,0(a1)
     93e:	8fd5                	or	a5,a5,a3
     940:	4dd4                	lw	a3,28(a1)
     942:	8fd5                	or	a5,a5,a3
     944:	41d4                	lw	a3,4(a1)
     946:	06a2                	slli	a3,a3,0x8
     948:	8fd5                	or	a5,a5,a3
     94a:	8fd9                	or	a5,a5,a4
     94c:	c15c                	sw	a5,4(a0)
     94e:	451c                	lw	a5,8(a0)
     950:	fff1f737          	lui	a4,0xfff1f
     954:	7fd70713          	addi	a4,a4,2045 # fff1f7fd <_eusrstack+0xdff177fd>
     958:	45d4                	lw	a3,12(a1)
     95a:	8f7d                	and	a4,a4,a5
     95c:	499c                	lw	a5,16(a1)
     95e:	8fd5                	or	a5,a5,a3
     960:	4594                	lw	a3,8(a1)
     962:	0686                	slli	a3,a3,0x1
     964:	8fd5                	or	a5,a5,a3
     966:	8fd9                	or	a5,a5,a4
     968:	c51c                	sw	a5,8(a0)
     96a:	555c                	lw	a5,44(a0)
     96c:	ff100737          	lui	a4,0xff100
     970:	177d                	addi	a4,a4,-1
     972:	8f7d                	and	a4,a4,a5
     974:	29dc                	lbu	a5,20(a1)
     976:	17fd                	addi	a5,a5,-1
     978:	0ff7f793          	andi	a5,a5,255
     97c:	07d2                	slli	a5,a5,0x14
     97e:	8fd9                	or	a5,a5,a4
     980:	d55c                	sw	a5,44(a0)
     982:	8082                	ret

00000984 <ADC_Cmd>:
     984:	451c                	lw	a5,8(a0)
     986:	c589                	beqz	a1,990 <ADC_Cmd+0xc>
     988:	0017e793          	ori	a5,a5,1
     98c:	c51c                	sw	a5,8(a0)
     98e:	8082                	ret
     990:	9bf9                	andi	a5,a5,-2
     992:	bfed                	j	98c <ADC_Cmd+0x8>

00000994 <ADC_ITConfig>:
     994:	415c                	lw	a5,4(a0)
     996:	0ff5f593          	andi	a1,a1,255
     99a:	c601                	beqz	a2,9a2 <ADC_ITConfig+0xe>
     99c:	8ddd                	or	a1,a1,a5
     99e:	c14c                	sw	a1,4(a0)
     9a0:	8082                	ret
     9a2:	fff5c593          	not	a1,a1
     9a6:	8dfd                	and	a1,a1,a5
     9a8:	bfdd                	j	99e <ADC_ITConfig+0xa>

000009aa <ADC_ResetCalibration>:
     9aa:	451c                	lw	a5,8(a0)
     9ac:	0087e793          	ori	a5,a5,8
     9b0:	c51c                	sw	a5,8(a0)
     9b2:	8082                	ret

000009b4 <ADC_GetResetCalibrationStatus>:
     9b4:	4508                	lw	a0,8(a0)
     9b6:	810d                	srli	a0,a0,0x3
     9b8:	8905                	andi	a0,a0,1
     9ba:	8082                	ret

000009bc <ADC_StartCalibration>:
     9bc:	451c                	lw	a5,8(a0)
     9be:	0047e793          	ori	a5,a5,4
     9c2:	c51c                	sw	a5,8(a0)
     9c4:	8082                	ret

000009c6 <ADC_GetCalibrationStatus>:
     9c6:	4508                	lw	a0,8(a0)
     9c8:	8109                	srli	a0,a0,0x2
     9ca:	8905                	andi	a0,a0,1
     9cc:	8082                	ret

000009ce <ADC_ExternalTrigInjectedConvCmd>:
     9ce:	451c                	lw	a5,8(a0)
     9d0:	c589                	beqz	a1,9da <ADC_ExternalTrigInjectedConvCmd+0xc>
     9d2:	6721                	lui	a4,0x8
     9d4:	8fd9                	or	a5,a5,a4
     9d6:	c51c                	sw	a5,8(a0)
     9d8:	8082                	ret
     9da:	7761                	lui	a4,0xffff8
     9dc:	177d                	addi	a4,a4,-1
     9de:	8ff9                	and	a5,a5,a4
     9e0:	bfdd                	j	9d6 <ADC_ExternalTrigInjectedConvCmd+0x8>

000009e2 <ADC_InjectedChannelConfig>:
     9e2:	47a5                	li	a5,9
     9e4:	04b7fb63          	bgeu	a5,a1,a3a <ADC_InjectedChannelConfig+0x58>
     9e8:	478d                	li	a5,3
     9ea:	ff658713          	addi	a4,a1,-10
     9ee:	02f70733          	mul	a4,a4,a5
     9f2:	00c52803          	lw	a6,12(a0)
     9f6:	479d                	li	a5,7
     9f8:	00e797b3          	sll	a5,a5,a4
     9fc:	fff7c793          	not	a5,a5
     a00:	0107f7b3          	and	a5,a5,a6
     a04:	00e696b3          	sll	a3,a3,a4
     a08:	8edd                	or	a3,a3,a5
     a0a:	c554                	sw	a3,12(a0)
     a0c:	5d14                	lw	a3,56(a0)
     a0e:	0609                	addi	a2,a2,2
     a10:	4715                	li	a4,5
     a12:	0146d793          	srli	a5,a3,0x14
     a16:	8b8d                	andi	a5,a5,3
     a18:	40f607b3          	sub	a5,a2,a5
     a1c:	0ff7f793          	andi	a5,a5,255
     a20:	02e787b3          	mul	a5,a5,a4
     a24:	477d                	li	a4,31
     a26:	00f71733          	sll	a4,a4,a5
     a2a:	fff74713          	not	a4,a4
     a2e:	8f75                	and	a4,a4,a3
     a30:	00f595b3          	sll	a1,a1,a5
     a34:	8dd9                	or	a1,a1,a4
     a36:	dd0c                	sw	a1,56(a0)
     a38:	8082                	ret
     a3a:	470d                	li	a4,3
     a3c:	02e58733          	mul	a4,a1,a4
     a40:	01052803          	lw	a6,16(a0)
     a44:	479d                	li	a5,7
     a46:	00e797b3          	sll	a5,a5,a4
     a4a:	fff7c793          	not	a5,a5
     a4e:	0107f7b3          	and	a5,a5,a6
     a52:	00e696b3          	sll	a3,a3,a4
     a56:	8edd                	or	a3,a3,a5
     a58:	c914                	sw	a3,16(a0)
     a5a:	bf4d                	j	a0c <ADC_InjectedChannelConfig+0x2a>

00000a5c <ADC_InjectedSequencerLengthConfig>:
     a5c:	5d1c                	lw	a5,56(a0)
     a5e:	ffd00737          	lui	a4,0xffd00
     a62:	177d                	addi	a4,a4,-1
     a64:	15fd                	addi	a1,a1,-1
     a66:	8ff9                	and	a5,a5,a4
     a68:	05d2                	slli	a1,a1,0x14
     a6a:	8ddd                	or	a1,a1,a5
     a6c:	dd0c                	sw	a1,56(a0)
     a6e:	8082                	ret

00000a70 <ADC_GetInjectedConversionValue>:
     a70:	1141                	addi	sp,sp,-16
     a72:	c602                	sw	zero,12(sp)
     a74:	c62a                	sw	a0,12(sp)
     a76:	47b2                	lw	a5,12(sp)
     a78:	02878793          	addi	a5,a5,40
     a7c:	95be                	add	a1,a1,a5
     a7e:	c62e                	sw	a1,12(sp)
     a80:	47b2                	lw	a5,12(sp)
     a82:	4388                	lw	a0,0(a5)
     a84:	0141                	addi	sp,sp,16
     a86:	0542                	slli	a0,a0,0x10
     a88:	8141                	srli	a0,a0,0x10
     a8a:	8082                	ret

00000a8c <ADC_GetITStatus>:
     a8c:	4158                	lw	a4,4(a0)
     a8e:	4114                	lw	a3,0(a0)
     a90:	0085d793          	srli	a5,a1,0x8
     a94:	8ff5                	and	a5,a5,a3
     a96:	c799                	beqz	a5,aa4 <ADC_GetITStatus+0x18>
     a98:	0ff5f513          	andi	a0,a1,255
     a9c:	8d79                	and	a0,a0,a4
     a9e:	00a03533          	snez	a0,a0
     aa2:	8082                	ret
     aa4:	4501                	li	a0,0
     aa6:	8082                	ret

00000aa8 <ADC_ClearITPendingBit>:
     aa8:	81a1                	srli	a1,a1,0x8
     aaa:	fff5c593          	not	a1,a1
     aae:	c10c                	sw	a1,0(a0)
     ab0:	8082                	ret

00000ab2 <ADC_BufferCmd>:
     ab2:	415c                	lw	a5,4(a0)
     ab4:	c591                	beqz	a1,ac0 <ADC_BufferCmd+0xe>
     ab6:	04000737          	lui	a4,0x4000
     aba:	8fd9                	or	a5,a5,a4
     abc:	c15c                	sw	a5,4(a0)
     abe:	8082                	ret
     ac0:	fc000737          	lui	a4,0xfc000
     ac4:	177d                	addi	a4,a4,-1
     ac6:	8ff9                	and	a5,a5,a4
     ac8:	bfd5                	j	abc <ADC_BufferCmd+0xa>

00000aca <Get_CalibrationValue>:
     aca:	f66ff2ef          	jal	t0,230 <__riscv_save_0>
     ace:	1101                	addi	sp,sp,-32
     ad0:	842a                	mv	s0,a0
     ad2:	00010423          	sb	zero,8(sp)
     ad6:	44a5                	li	s1,9
     ad8:	841c                	lbu	a5,8(sp)
     ada:	04f4f963          	bgeu	s1,a5,b2c <Get_CalibrationValue+0x62>
     ade:	00010423          	sb	zero,8(sp)
     ae2:	46a5                	li	a3,9
     ae4:	4621                	li	a2,8
     ae6:	841c                	lbu	a5,8(sp)
     ae8:	06f6fd63          	bgeu	a3,a5,b62 <Get_CalibrationValue+0x98>
     aec:	00011523          	sh	zero,10(sp)
     af0:	00010423          	sb	zero,8(sp)
     af4:	4695                	li	a3,5
     af6:	841c                	lbu	a5,8(sp)
     af8:	0cf6ff63          	bgeu	a3,a5,bd6 <Get_CalibrationValue+0x10c>
     afc:	8538                	lhu	a4,10(sp)
     afe:	853c                	lhu	a5,10(sp)
     b00:	4699                	li	a3,6
     b02:	460d                	li	a2,3
     b04:	02d7f7b3          	remu	a5,a5,a3
     b08:	6505                	lui	a0,0x1
     b0a:	80050513          	addi	a0,a0,-2048 # 800 <USART2_IRQHandler>
     b0e:	02c7d7b3          	divu	a5,a5,a2
     b12:	02d75733          	divu	a4,a4,a3
     b16:	97ba                	add	a5,a5,a4
     b18:	07c2                	slli	a5,a5,0x10
     b1a:	83c1                	srli	a5,a5,0x10
     b1c:	857c                	sh	a5,10(sp)
     b1e:	853c                	lhu	a5,10(sp)
     b20:	6105                	addi	sp,sp,32
     b22:	8d1d                	sub	a0,a0,a5
     b24:	0542                	slli	a0,a0,0x10
     b26:	8541                	srai	a0,a0,0x10
     b28:	f2cff06f          	j	254 <__riscv_restore_0>
     b2c:	441c                	lw	a5,8(s0)
     b2e:	0087e793          	ori	a5,a5,8
     b32:	c41c                	sw	a5,8(s0)
     b34:	8522                	mv	a0,s0
     b36:	3dbd                	jal	9b4 <ADC_GetResetCalibrationStatus>
     b38:	fd75                	bnez	a0,b34 <Get_CalibrationValue+0x6a>
     b3a:	441c                	lw	a5,8(s0)
     b3c:	0047e793          	ori	a5,a5,4
     b40:	c41c                	sw	a5,8(s0)
     b42:	8522                	mv	a0,s0
     b44:	3549                	jal	9c6 <ADC_GetCalibrationStatus>
     b46:	fd75                	bnez	a0,b42 <Get_CalibrationValue+0x78>
     b48:	4478                	lw	a4,76(s0)
     b4a:	841c                	lbu	a5,8(sp)
     b4c:	1014                	addi	a3,sp,32
     b4e:	0786                	slli	a5,a5,0x1
     b50:	97b6                	add	a5,a5,a3
     b52:	fee79623          	sh	a4,-20(a5)
     b56:	841c                	lbu	a5,8(sp)
     b58:	0785                	addi	a5,a5,1
     b5a:	0ff7f793          	andi	a5,a5,255
     b5e:	845c                	sb	a5,8(sp)
     b60:	bfa5                	j	ad8 <Get_CalibrationValue+0xe>
     b62:	000104a3          	sb	zero,9(sp)
     b66:	849c                	lbu	a5,9(sp)
     b68:	00f67863          	bgeu	a2,a5,b78 <Get_CalibrationValue+0xae>
     b6c:	841c                	lbu	a5,8(sp)
     b6e:	0785                	addi	a5,a5,1
     b70:	0ff7f793          	andi	a5,a5,255
     b74:	845c                	sb	a5,8(sp)
     b76:	bf85                	j	ae6 <Get_CalibrationValue+0x1c>
     b78:	8498                	lbu	a4,9(sp)
     b7a:	849c                	lbu	a5,9(sp)
     b7c:	100c                	addi	a1,sp,32
     b7e:	0706                	slli	a4,a4,0x1
     b80:	0785                	addi	a5,a5,1
     b82:	0786                	slli	a5,a5,0x1
     b84:	972e                	add	a4,a4,a1
     b86:	97ae                	add	a5,a5,a1
     b88:	fec75703          	lhu	a4,-20(a4) # fbffffec <_eusrstack+0xdbff7fec>
     b8c:	fec7d783          	lhu	a5,-20(a5)
     b90:	02e7fd63          	bgeu	a5,a4,bca <Get_CalibrationValue+0x100>
     b94:	849c                	lbu	a5,9(sp)
     b96:	0786                	slli	a5,a5,0x1
     b98:	97ae                	add	a5,a5,a1
     b9a:	fec7d783          	lhu	a5,-20(a5)
     b9e:	857c                	sh	a5,10(sp)
     ba0:	849c                	lbu	a5,9(sp)
     ba2:	8498                	lbu	a4,9(sp)
     ba4:	0785                	addi	a5,a5,1
     ba6:	0786                	slli	a5,a5,0x1
     ba8:	97ae                	add	a5,a5,a1
     baa:	fec7d583          	lhu	a1,-20(a5)
     bae:	00171793          	slli	a5,a4,0x1
     bb2:	1018                	addi	a4,sp,32
     bb4:	97ba                	add	a5,a5,a4
     bb6:	feb79623          	sh	a1,-20(a5)
     bba:	849c                	lbu	a5,9(sp)
     bbc:	8538                	lhu	a4,10(sp)
     bbe:	100c                	addi	a1,sp,32
     bc0:	0785                	addi	a5,a5,1
     bc2:	0786                	slli	a5,a5,0x1
     bc4:	97ae                	add	a5,a5,a1
     bc6:	fee79623          	sh	a4,-20(a5)
     bca:	849c                	lbu	a5,9(sp)
     bcc:	0785                	addi	a5,a5,1
     bce:	0ff7f793          	andi	a5,a5,255
     bd2:	84dc                	sb	a5,9(sp)
     bd4:	bf49                	j	b66 <Get_CalibrationValue+0x9c>
     bd6:	841c                	lbu	a5,8(sp)
     bd8:	1010                	addi	a2,sp,32
     bda:	8538                	lhu	a4,10(sp)
     bdc:	0789                	addi	a5,a5,2
     bde:	0786                	slli	a5,a5,0x1
     be0:	97b2                	add	a5,a5,a2
     be2:	fec7d783          	lhu	a5,-20(a5)
     be6:	97ba                	add	a5,a5,a4
     be8:	07c2                	slli	a5,a5,0x10
     bea:	83c1                	srli	a5,a5,0x10
     bec:	857c                	sh	a5,10(sp)
     bee:	841c                	lbu	a5,8(sp)
     bf0:	0785                	addi	a5,a5,1
     bf2:	0ff7f793          	andi	a5,a5,255
     bf6:	845c                	sb	a5,8(sp)
     bf8:	bdfd                	j	af6 <Get_CalibrationValue+0x2c>

00000bfa <GPIO_Init>:
     bfa:	459c                	lw	a5,8(a1)
     bfc:	0107f713          	andi	a4,a5,16
     c00:	00f7f813          	andi	a6,a5,15
     c04:	c701                	beqz	a4,c0c <GPIO_Init+0x12>
     c06:	41d8                	lw	a4,4(a1)
     c08:	00e86833          	or	a6,a6,a4
     c0c:	218e                	lhu	a1,0(a1)
     c0e:	0ff5f713          	andi	a4,a1,255
     c12:	c339                	beqz	a4,c58 <GPIO_Init+0x5e>
     c14:	4118                	lw	a4,0(a0)
     c16:	4681                	li	a3,0
     c18:	4e85                	li	t4,1
     c1a:	4f3d                	li	t5,15
     c1c:	02800f93          	li	t6,40
     c20:	04800293          	li	t0,72
     c24:	4e21                	li	t3,8
     c26:	00de9633          	sll	a2,t4,a3
     c2a:	00c5f8b3          	and	a7,a1,a2
     c2e:	03161163          	bne	a2,a7,c50 <GPIO_Init+0x56>
     c32:	00269893          	slli	a7,a3,0x2
     c36:	011f1333          	sll	t1,t5,a7
     c3a:	fff34313          	not	t1,t1
     c3e:	00e37733          	and	a4,t1,a4
     c42:	011818b3          	sll	a7,a6,a7
     c46:	00e8e733          	or	a4,a7,a4
     c4a:	05f79f63          	bne	a5,t6,ca8 <GPIO_Init+0xae>
     c4e:	c950                	sw	a2,20(a0)
     c50:	0685                	addi	a3,a3,1
     c52:	fdc69ae3          	bne	a3,t3,c26 <GPIO_Init+0x2c>
     c56:	c118                	sw	a4,0(a0)
     c58:	0ff00713          	li	a4,255
     c5c:	04b77563          	bgeu	a4,a1,ca6 <GPIO_Init+0xac>
     c60:	4154                	lw	a3,4(a0)
     c62:	4621                	li	a2,8
     c64:	4e85                	li	t4,1
     c66:	4f3d                	li	t5,15
     c68:	02800f93          	li	t6,40
     c6c:	04800293          	li	t0,72
     c70:	4e41                	li	t3,16
     c72:	00ce98b3          	sll	a7,t4,a2
     c76:	0115f733          	and	a4,a1,a7
     c7a:	02e89263          	bne	a7,a4,c9e <GPIO_Init+0xa4>
     c7e:	00261713          	slli	a4,a2,0x2
     c82:	1701                	addi	a4,a4,-32
     c84:	00ef1333          	sll	t1,t5,a4
     c88:	fff34313          	not	t1,t1
     c8c:	00d376b3          	and	a3,t1,a3
     c90:	00e81733          	sll	a4,a6,a4
     c94:	8ed9                	or	a3,a3,a4
     c96:	01f79d63          	bne	a5,t6,cb0 <GPIO_Init+0xb6>
     c9a:	01152a23          	sw	a7,20(a0)
     c9e:	0605                	addi	a2,a2,1
     ca0:	fdc619e3          	bne	a2,t3,c72 <GPIO_Init+0x78>
     ca4:	c154                	sw	a3,4(a0)
     ca6:	8082                	ret
     ca8:	fa5794e3          	bne	a5,t0,c50 <GPIO_Init+0x56>
     cac:	c910                	sw	a2,16(a0)
     cae:	b74d                	j	c50 <GPIO_Init+0x56>
     cb0:	fe5797e3          	bne	a5,t0,c9e <GPIO_Init+0xa4>
     cb4:	01152823          	sw	a7,16(a0)
     cb8:	b7dd                	j	c9e <GPIO_Init+0xa4>

00000cba <NVIC_PriorityGroupConfig>:
     cba:	82a1a223          	sw	a0,-2012(gp) # 20000094 <NVIC_Priority_Group>
     cbe:	8082                	ret

00000cc0 <NVIC_Init>:
     cc0:	82418793          	addi	a5,gp,-2012 # 20000094 <NVIC_Priority_Group>
     cc4:	4394                	lw	a3,0(a5)
     cc6:	2118                	lbu	a4,0(a0)
     cc8:	e681                	bnez	a3,cd0 <NVIC_Init+0x10>
     cca:	213c                	lbu	a5,2(a0)
     ccc:	0792                	slli	a5,a5,0x4
     cce:	a821                	j	ce6 <NVIC_Init+0x26>
     cd0:	4394                	lw	a3,0(a5)
     cd2:	4605                	li	a2,1
     cd4:	02c69f63          	bne	a3,a2,d12 <NVIC_Init+0x52>
     cd8:	213c                	lbu	a5,2(a0)
     cda:	3110                	lbu	a2,1(a0)
     cdc:	0792                	slli	a5,a5,0x4
     cde:	00d61463          	bne	a2,a3,ce6 <NVIC_Init+0x26>
     ce2:	f807e793          	ori	a5,a5,-128
     ce6:	e000e6b7          	lui	a3,0xe000e
     cea:	0ff7f793          	andi	a5,a5,255
     cee:	96ba                	add	a3,a3,a4
     cf0:	40f68023          	sb	a5,1024(a3) # e000e400 <_eusrstack+0xc0006400>
     cf4:	4685                	li	a3,1
     cf6:	00575793          	srli	a5,a4,0x5
     cfa:	00e69733          	sll	a4,a3,a4
     cfe:	4154                	lw	a3,4(a0)
     d00:	c2a5                	beqz	a3,d60 <NVIC_Init+0xa0>
     d02:	04078793          	addi	a5,a5,64
     d06:	078a                	slli	a5,a5,0x2
     d08:	e000e6b7          	lui	a3,0xe000e
     d0c:	97b6                	add	a5,a5,a3
     d0e:	c398                	sw	a4,0(a5)
     d10:	8082                	ret
     d12:	438c                	lw	a1,0(a5)
     d14:	4689                	li	a3,2
     d16:	02d59163          	bne	a1,a3,d38 <NVIC_Init+0x78>
     d1a:	3114                	lbu	a3,1(a0)
     d1c:	213c                	lbu	a5,2(a0)
     d1e:	00d66563          	bltu	a2,a3,d28 <NVIC_Init+0x68>
     d22:	068a                	slli	a3,a3,0x2
     d24:	97b6                	add	a5,a5,a3
     d26:	b75d                	j	ccc <NVIC_Init+0xc>
     d28:	03e68693          	addi	a3,a3,62 # e000e03e <_eusrstack+0xc000603e>
     d2c:	068a                	slli	a3,a3,0x2
     d2e:	97b6                	add	a5,a5,a3
     d30:	0ff7f793          	andi	a5,a5,255
     d34:	0792                	slli	a5,a5,0x4
     d36:	b775                	j	ce2 <NVIC_Init+0x22>
     d38:	4390                	lw	a2,0(a5)
     d3a:	468d                	li	a3,3
     d3c:	00d61c63          	bne	a2,a3,d54 <NVIC_Init+0x94>
     d40:	3114                	lbu	a3,1(a0)
     d42:	213c                	lbu	a5,2(a0)
     d44:	00d66463          	bltu	a2,a3,d4c <NVIC_Init+0x8c>
     d48:	0686                	slli	a3,a3,0x1
     d4a:	bfe9                	j	d24 <NVIC_Init+0x64>
     d4c:	07c68693          	addi	a3,a3,124
     d50:	0686                	slli	a3,a3,0x1
     d52:	bff1                	j	d2e <NVIC_Init+0x6e>
     d54:	4394                	lw	a3,0(a5)
     d56:	4791                	li	a5,4
     d58:	f8f69ee3          	bne	a3,a5,cf4 <NVIC_Init+0x34>
     d5c:	311c                	lbu	a5,1(a0)
     d5e:	b7bd                	j	ccc <NVIC_Init+0xc>
     d60:	06078793          	addi	a5,a5,96
     d64:	b74d                	j	d06 <NVIC_Init+0x46>

00000d66 <RCC_ADCCLKConfig>:
     d66:	400216b7          	lui	a3,0x40021
     d6a:	42dc                	lw	a5,4(a3)
     d6c:	7751                	lui	a4,0xffff4
     d6e:	177d                	addi	a4,a4,-1
     d70:	8ff9                	and	a5,a5,a4
     d72:	8d5d                	or	a0,a0,a5
     d74:	c2c8                	sw	a0,4(a3)
     d76:	8082                	ret

00000d78 <RCC_GetClocksFreq>:
     d78:	40021737          	lui	a4,0x40021
     d7c:	435c                	lw	a5,4(a4)
     d7e:	4691                	li	a3,4
     d80:	8bb1                	andi	a5,a5,12
     d82:	00d78563          	beq	a5,a3,d8c <RCC_GetClocksFreq+0x14>
     d86:	46a1                	li	a3,8
     d88:	06d78263          	beq	a5,a3,dec <RCC_GetClocksFreq+0x74>
     d8c:	007a17b7          	lui	a5,0x7a1
     d90:	20078793          	addi	a5,a5,512 # 7a1200 <_data_lma+0x79ad3c>
     d94:	c11c                	sw	a5,0(a0)
     d96:	40021637          	lui	a2,0x40021
     d9a:	425c                	lw	a5,4(a2)
     d9c:	20000737          	lui	a4,0x20000
     da0:	00070713          	mv	a4,a4
     da4:	8391                	srli	a5,a5,0x4
     da6:	8bbd                	andi	a5,a5,15
     da8:	97ba                	add	a5,a5,a4
     daa:	2394                	lbu	a3,0(a5)
     dac:	411c                	lw	a5,0(a0)
     dae:	00d7d7b3          	srl	a5,a5,a3
     db2:	c15c                	sw	a5,4(a0)
     db4:	4254                	lw	a3,4(a2)
     db6:	82a1                	srli	a3,a3,0x8
     db8:	8a9d                	andi	a3,a3,7
     dba:	96ba                	add	a3,a3,a4
     dbc:	2294                	lbu	a3,0(a3)
     dbe:	00d7d6b3          	srl	a3,a5,a3
     dc2:	c514                	sw	a3,8(a0)
     dc4:	4254                	lw	a3,4(a2)
     dc6:	82ad                	srli	a3,a3,0xb
     dc8:	8a9d                	andi	a3,a3,7
     dca:	9736                	add	a4,a4,a3
     dcc:	2318                	lbu	a4,0(a4)
     dce:	00e7d7b3          	srl	a5,a5,a4
     dd2:	c55c                	sw	a5,12(a0)
     dd4:	4258                	lw	a4,4(a2)
     dd6:	8339                	srli	a4,a4,0xe
     dd8:	00377693          	andi	a3,a4,3
     ddc:	80418713          	addi	a4,gp,-2044 # 20000074 <ADCPrescTable>
     de0:	9736                	add	a4,a4,a3
     de2:	2318                	lbu	a4,0(a4)
     de4:	02e7d7b3          	divu	a5,a5,a4
     de8:	c91c                	sw	a5,16(a0)
     dea:	8082                	ret
     dec:	435c                	lw	a5,4(a4)
     dee:	4358                	lw	a4,4(a4)
     df0:	66c1                	lui	a3,0x10
     df2:	83c9                	srli	a5,a5,0x12
     df4:	8f75                	and	a4,a4,a3
     df6:	1ffff6b7          	lui	a3,0x1ffff
     dfa:	70c6a683          	lw	a3,1804(a3) # 1ffff70c <_data_lma+0x1fff9248>
     dfe:	8bbd                	andi	a5,a5,15
     e00:	0789                	addi	a5,a5,2
     e02:	01169613          	slli	a2,a3,0x11
     e06:	00064863          	bltz	a2,e16 <RCC_GetClocksFreq+0x9e>
     e0a:	46c5                	li	a3,17
     e0c:	4601                	li	a2,0
     e0e:	02d79263          	bne	a5,a3,e32 <RCC_GetClocksFreq+0xba>
     e12:	47c9                	li	a5,18
     e14:	a839                	j	e32 <RCC_GetClocksFreq+0xba>
     e16:	4689                	li	a3,2
     e18:	02d78f63          	beq	a5,a3,e56 <RCC_GetClocksFreq+0xde>
     e1c:	46bd                	li	a3,15
     e1e:	02d78e63          	beq	a5,a3,e5a <RCC_GetClocksFreq+0xe2>
     e22:	46c1                	li	a3,16
     e24:	02d78e63          	beq	a5,a3,e60 <RCC_GetClocksFreq+0xe8>
     e28:	46c5                	li	a3,17
     e2a:	4601                	li	a2,0
     e2c:	00d79363          	bne	a5,a3,e32 <RCC_GetClocksFreq+0xba>
     e30:	47c1                	li	a5,16
     e32:	ef1d                	bnez	a4,e70 <RCC_GetClocksFreq+0xf8>
     e34:	40024737          	lui	a4,0x40024
     e38:	80072703          	lw	a4,-2048(a4) # 40023800 <_eusrstack+0x2001b800>
     e3c:	8b41                	andi	a4,a4,16
     e3e:	c705                	beqz	a4,e66 <RCC_GetClocksFreq+0xee>
     e40:	007a1737          	lui	a4,0x7a1
     e44:	20070713          	addi	a4,a4,512 # 7a1200 <_data_lma+0x79ad3c>
     e48:	02f707b3          	mul	a5,a4,a5
     e4c:	c11c                	sw	a5,0(a0)
     e4e:	d621                	beqz	a2,d96 <RCC_GetClocksFreq+0x1e>
     e50:	411c                	lw	a5,0(a0)
     e52:	8385                	srli	a5,a5,0x1
     e54:	b781                	j	d94 <RCC_GetClocksFreq+0x1c>
     e56:	4601                	li	a2,0
     e58:	bf6d                	j	e12 <RCC_GetClocksFreq+0x9a>
     e5a:	4605                	li	a2,1
     e5c:	47b5                	li	a5,13
     e5e:	bfd1                	j	e32 <RCC_GetClocksFreq+0xba>
     e60:	4601                	li	a2,0
     e62:	47bd                	li	a5,15
     e64:	b7f9                	j	e32 <RCC_GetClocksFreq+0xba>
     e66:	003d1737          	lui	a4,0x3d1
     e6a:	90070713          	addi	a4,a4,-1792 # 3d0900 <_data_lma+0x3ca43c>
     e6e:	bfe9                	j	e48 <RCC_GetClocksFreq+0xd0>
     e70:	400215b7          	lui	a1,0x40021
     e74:	55d8                	lw	a4,44(a1)
     e76:	00f71693          	slli	a3,a4,0xf
     e7a:	55d8                	lw	a4,44(a1)
     e7c:	0406df63          	bgez	a3,eda <RCC_GetClocksFreq+0x162>
     e80:	8311                	srli	a4,a4,0x4
     e82:	8b3d                	andi	a4,a4,15
     e84:	00170693          	addi	a3,a4,1
     e88:	007a1737          	lui	a4,0x7a1
     e8c:	20070713          	addi	a4,a4,512 # 7a1200 <_data_lma+0x79ad3c>
     e90:	02d75733          	divu	a4,a4,a3
     e94:	c118                	sw	a4,0(a0)
     e96:	55d4                	lw	a3,44(a1)
     e98:	82a1                	srli	a3,a3,0x8
     e9a:	8abd                	andi	a3,a3,15
     e9c:	e28d                	bnez	a3,ebe <RCC_GetClocksFreq+0x146>
     e9e:	4695                	li	a3,5
     ea0:	02d70733          	mul	a4,a4,a3
     ea4:	8305                	srli	a4,a4,0x1
     ea6:	c118                	sw	a4,0(a0)
     ea8:	40021737          	lui	a4,0x40021
     eac:	5758                	lw	a4,44(a4)
     eae:	4114                	lw	a3,0(a0)
     eb0:	8b3d                	andi	a4,a4,15
     eb2:	0705                	addi	a4,a4,1
     eb4:	02e6d733          	divu	a4,a3,a4
     eb8:	c118                	sw	a4,0(a0)
     eba:	4118                	lw	a4,0(a0)
     ebc:	b771                	j	e48 <RCC_GetClocksFreq+0xd0>
     ebe:	4585                	li	a1,1
     ec0:	00b69463          	bne	a3,a1,ec8 <RCC_GetClocksFreq+0x150>
     ec4:	46e5                	li	a3,25
     ec6:	bfe9                	j	ea0 <RCC_GetClocksFreq+0x128>
     ec8:	45bd                	li	a1,15
     eca:	00b69663          	bne	a3,a1,ed6 <RCC_GetClocksFreq+0x15e>
     ece:	46d1                	li	a3,20
     ed0:	02e68733          	mul	a4,a3,a4
     ed4:	bfc9                	j	ea6 <RCC_GetClocksFreq+0x12e>
     ed6:	0689                	addi	a3,a3,2
     ed8:	bfe5                	j	ed0 <RCC_GetClocksFreq+0x158>
     eda:	8b3d                	andi	a4,a4,15
     edc:	00170693          	addi	a3,a4,1 # 40021001 <_eusrstack+0x20019001>
     ee0:	007a1737          	lui	a4,0x7a1
     ee4:	20070713          	addi	a4,a4,512 # 7a1200 <_data_lma+0x79ad3c>
     ee8:	02d75733          	divu	a4,a4,a3
     eec:	b7f1                	j	eb8 <RCC_GetClocksFreq+0x140>

00000eee <RCC_APB2PeriphClockCmd>:
     eee:	c599                	beqz	a1,efc <RCC_APB2PeriphClockCmd+0xe>
     ef0:	40021737          	lui	a4,0x40021
     ef4:	4f1c                	lw	a5,24(a4)
     ef6:	8d5d                	or	a0,a0,a5
     ef8:	cf08                	sw	a0,24(a4)
     efa:	8082                	ret
     efc:	400217b7          	lui	a5,0x40021
     f00:	4f98                	lw	a4,24(a5)
     f02:	fff54513          	not	a0,a0
     f06:	8d79                	and	a0,a0,a4
     f08:	cf88                	sw	a0,24(a5)
     f0a:	8082                	ret

00000f0c <RCC_APB1PeriphClockCmd>:
     f0c:	c599                	beqz	a1,f1a <RCC_APB1PeriphClockCmd+0xe>
     f0e:	40021737          	lui	a4,0x40021
     f12:	4f5c                	lw	a5,28(a4)
     f14:	8d5d                	or	a0,a0,a5
     f16:	cf48                	sw	a0,28(a4)
     f18:	8082                	ret
     f1a:	400217b7          	lui	a5,0x40021
     f1e:	4fd8                	lw	a4,28(a5)
     f20:	fff54513          	not	a0,a0
     f24:	8d79                	and	a0,a0,a4
     f26:	cfc8                	sw	a0,28(a5)
     f28:	8082                	ret

00000f2a <RCC_APB2PeriphResetCmd>:
     f2a:	c599                	beqz	a1,f38 <RCC_APB2PeriphResetCmd+0xe>
     f2c:	40021737          	lui	a4,0x40021
     f30:	475c                	lw	a5,12(a4)
     f32:	8d5d                	or	a0,a0,a5
     f34:	c748                	sw	a0,12(a4)
     f36:	8082                	ret
     f38:	400217b7          	lui	a5,0x40021
     f3c:	47d8                	lw	a4,12(a5)
     f3e:	fff54513          	not	a0,a0
     f42:	8d79                	and	a0,a0,a4
     f44:	c7c8                	sw	a0,12(a5)
     f46:	8082                	ret

00000f48 <TIM_TimeBaseInit>:
     f48:	211e                	lhu	a5,0(a0)
     f4a:	40013737          	lui	a4,0x40013
     f4e:	c0070693          	addi	a3,a4,-1024 # 40012c00 <_eusrstack+0x2000ac00>
     f52:	07c2                	slli	a5,a5,0x10
     f54:	83c1                	srli	a5,a5,0x10
     f56:	04d50063          	beq	a0,a3,f96 <TIM_TimeBaseInit+0x4e>
     f5a:	400006b7          	lui	a3,0x40000
     f5e:	02d50c63          	beq	a0,a3,f96 <TIM_TimeBaseInit+0x4e>
     f62:	40068693          	addi	a3,a3,1024 # 40000400 <_eusrstack+0x1fff8400>
     f66:	02d50863          	beq	a0,a3,f96 <TIM_TimeBaseInit+0x4e>
     f6a:	400016b7          	lui	a3,0x40001
     f6e:	80068613          	addi	a2,a3,-2048 # 40000800 <_eusrstack+0x1fff8800>
     f72:	02c50263          	beq	a0,a2,f96 <TIM_TimeBaseInit+0x4e>
     f76:	c0068693          	addi	a3,a3,-1024
     f7a:	00d50e63          	beq	a0,a3,f96 <TIM_TimeBaseInit+0x4e>
     f7e:	40070713          	addi	a4,a4,1024
     f82:	00e50a63          	beq	a0,a4,f96 <TIM_TimeBaseInit+0x4e>
     f86:	40015737          	lui	a4,0x40015
     f8a:	c0070693          	addi	a3,a4,-1024 # 40014c00 <_eusrstack+0x2000cc00>
     f8e:	00d50463          	beq	a0,a3,f96 <TIM_TimeBaseInit+0x4e>
     f92:	00e51663          	bne	a0,a4,f9e <TIM_TimeBaseInit+0x56>
     f96:	21ba                	lhu	a4,2(a1)
     f98:	f8f7f793          	andi	a5,a5,-113
     f9c:	8fd9                	or	a5,a5,a4
     f9e:	40001737          	lui	a4,0x40001
     fa2:	00e50c63          	beq	a0,a4,fba <TIM_TimeBaseInit+0x72>
     fa6:	40070713          	addi	a4,a4,1024 # 40001400 <_eusrstack+0x1fff9400>
     faa:	00e50863          	beq	a0,a4,fba <TIM_TimeBaseInit+0x72>
     fae:	cff7f793          	andi	a5,a5,-769
     fb2:	21fa                	lhu	a4,6(a1)
     fb4:	07c2                	slli	a5,a5,0x10
     fb6:	83c1                	srli	a5,a5,0x10
     fb8:	8fd9                	or	a5,a5,a4
     fba:	a11e                	sh	a5,0(a0)
     fbc:	21de                	lhu	a5,4(a1)
     fbe:	b55e                	sh	a5,44(a0)
     fc0:	219e                	lhu	a5,0(a1)
     fc2:	b51e                	sh	a5,40(a0)
     fc4:	400137b7          	lui	a5,0x40013
     fc8:	c0078713          	addi	a4,a5,-1024 # 40012c00 <_eusrstack+0x2000ac00>
     fcc:	00e50e63          	beq	a0,a4,fe8 <TIM_TimeBaseInit+0xa0>
     fd0:	40078793          	addi	a5,a5,1024
     fd4:	00f50a63          	beq	a0,a5,fe8 <TIM_TimeBaseInit+0xa0>
     fd8:	400157b7          	lui	a5,0x40015
     fdc:	c0078713          	addi	a4,a5,-1024 # 40014c00 <_eusrstack+0x2000cc00>
     fe0:	00e50463          	beq	a0,a4,fe8 <TIM_TimeBaseInit+0xa0>
     fe4:	00f51463          	bne	a0,a5,fec <TIM_TimeBaseInit+0xa4>
     fe8:	259c                	lbu	a5,8(a1)
     fea:	b91e                	sh	a5,48(a0)
     fec:	4785                	li	a5,1
     fee:	a95e                	sh	a5,20(a0)
     ff0:	8082                	ret

00000ff2 <TIM_OC1Init>:
     ff2:	311e                	lhu	a5,32(a0)
     ff4:	2192                	lhu	a2,0(a1)
     ff6:	0025d803          	lhu	a6,2(a1) # 40021002 <_eusrstack+0x20019002>
     ffa:	07c2                	slli	a5,a5,0x10
     ffc:	83c1                	srli	a5,a5,0x10
     ffe:	9bf9                	andi	a5,a5,-2
    1000:	07c2                	slli	a5,a5,0x10
    1002:	83c1                	srli	a5,a5,0x10
    1004:	b11e                	sh	a5,32(a0)
    1006:	311e                	lhu	a5,32(a0)
    1008:	2156                	lhu	a3,4(a0)
    100a:	2d1a                	lhu	a4,24(a0)
    100c:	07c2                	slli	a5,a5,0x10
    100e:	83c1                	srli	a5,a5,0x10
    1010:	0742                	slli	a4,a4,0x10
    1012:	8341                	srli	a4,a4,0x10
    1014:	f8c77713          	andi	a4,a4,-116
    1018:	8f51                	or	a4,a4,a2
    101a:	2592                	lhu	a2,8(a1)
    101c:	9bf5                	andi	a5,a5,-3
    101e:	06c2                	slli	a3,a3,0x10
    1020:	01066633          	or	a2,a2,a6
    1024:	8fd1                	or	a5,a5,a2
    1026:	40013637          	lui	a2,0x40013
    102a:	c0060813          	addi	a6,a2,-1024 # 40012c00 <_eusrstack+0x2000ac00>
    102e:	82c1                	srli	a3,a3,0x10
    1030:	01050e63          	beq	a0,a6,104c <TIM_OC1Init+0x5a>
    1034:	40060613          	addi	a2,a2,1024
    1038:	00c50a63          	beq	a0,a2,104c <TIM_OC1Init+0x5a>
    103c:	40015637          	lui	a2,0x40015
    1040:	c0060813          	addi	a6,a2,-1024 # 40014c00 <_eusrstack+0x2000cc00>
    1044:	01050463          	beq	a0,a6,104c <TIM_OC1Init+0x5a>
    1048:	02c51063          	bne	a0,a2,1068 <TIM_OC1Init+0x76>
    104c:	25b2                	lhu	a2,10(a1)
    104e:	9bdd                	andi	a5,a5,-9
    1050:	00e5d803          	lhu	a6,14(a1)
    1054:	8fd1                	or	a5,a5,a2
    1056:	21d2                	lhu	a2,4(a1)
    1058:	9bed                	andi	a5,a5,-5
    105a:	cff6f693          	andi	a3,a3,-769
    105e:	8fd1                	or	a5,a5,a2
    1060:	25d2                	lhu	a2,12(a1)
    1062:	01066633          	or	a2,a2,a6
    1066:	8ed1                	or	a3,a3,a2
    1068:	a156                	sh	a3,4(a0)
    106a:	ad1a                	sh	a4,24(a0)
    106c:	21fa                	lhu	a4,6(a1)
    106e:	b95a                	sh	a4,52(a0)
    1070:	b11e                	sh	a5,32(a0)
    1072:	8082                	ret

00001074 <TIM_OC2Init>:
    1074:	311e                	lhu	a5,32(a0)
    1076:	7765                	lui	a4,0xffff9
    1078:	cff70713          	addi	a4,a4,-769 # ffff8cff <_eusrstack+0xdfff0cff>
    107c:	07c2                	slli	a5,a5,0x10
    107e:	83c1                	srli	a5,a5,0x10
    1080:	9bbd                	andi	a5,a5,-17
    1082:	07c2                	slli	a5,a5,0x10
    1084:	83c1                	srli	a5,a5,0x10
    1086:	b11e                	sh	a5,32(a0)
    1088:	311e                	lhu	a5,32(a0)
    108a:	2156                	lhu	a3,4(a0)
    108c:	0085d803          	lhu	a6,8(a1)
    1090:	07c2                	slli	a5,a5,0x10
    1092:	01069613          	slli	a2,a3,0x10
    1096:	2d16                	lhu	a3,24(a0)
    1098:	83c1                	srli	a5,a5,0x10
    109a:	fdf7f793          	andi	a5,a5,-33
    109e:	8f75                	and	a4,a4,a3
    10a0:	2196                	lhu	a3,0(a1)
    10a2:	8241                	srli	a2,a2,0x10
    10a4:	06a2                	slli	a3,a3,0x8
    10a6:	8f55                	or	a4,a4,a3
    10a8:	21b6                	lhu	a3,2(a1)
    10aa:	0742                	slli	a4,a4,0x10
    10ac:	8341                	srli	a4,a4,0x10
    10ae:	0106e6b3          	or	a3,a3,a6
    10b2:	0692                	slli	a3,a3,0x4
    10b4:	8fd5                	or	a5,a5,a3
    10b6:	400136b7          	lui	a3,0x40013
    10ba:	07c2                	slli	a5,a5,0x10
    10bc:	c0068813          	addi	a6,a3,-1024 # 40012c00 <_eusrstack+0x2000ac00>
    10c0:	83c1                	srli	a5,a5,0x10
    10c2:	01050e63          	beq	a0,a6,10de <TIM_OC2Init+0x6a>
    10c6:	40068693          	addi	a3,a3,1024
    10ca:	00d50a63          	beq	a0,a3,10de <TIM_OC2Init+0x6a>
    10ce:	400156b7          	lui	a3,0x40015
    10d2:	c0068813          	addi	a6,a3,-1024 # 40014c00 <_eusrstack+0x2000cc00>
    10d6:	01050463          	beq	a0,a6,10de <TIM_OC2Init+0x6a>
    10da:	02d51e63          	bne	a0,a3,1116 <TIM_OC2Init+0xa2>
    10de:	25b6                	lhu	a3,10(a1)
    10e0:	f7f7f793          	andi	a5,a5,-129
    10e4:	00c5d803          	lhu	a6,12(a1)
    10e8:	0692                	slli	a3,a3,0x4
    10ea:	8fd5                	or	a5,a5,a3
    10ec:	21d6                	lhu	a3,4(a1)
    10ee:	07c2                	slli	a5,a5,0x10
    10f0:	83c1                	srli	a5,a5,0x10
    10f2:	0692                	slli	a3,a3,0x4
    10f4:	fbf7f793          	andi	a5,a5,-65
    10f8:	8fd5                	or	a5,a5,a3
    10fa:	76fd                	lui	a3,0xfffff
    10fc:	3ff68693          	addi	a3,a3,1023 # fffff3ff <_eusrstack+0xdfff73ff>
    1100:	8ef1                	and	a3,a3,a2
    1102:	25f2                	lhu	a2,14(a1)
    1104:	07c2                	slli	a5,a5,0x10
    1106:	83c1                	srli	a5,a5,0x10
    1108:	01066633          	or	a2,a2,a6
    110c:	060a                	slli	a2,a2,0x2
    110e:	8ed1                	or	a3,a3,a2
    1110:	01069613          	slli	a2,a3,0x10
    1114:	8241                	srli	a2,a2,0x10
    1116:	a152                	sh	a2,4(a0)
    1118:	ad1a                	sh	a4,24(a0)
    111a:	21fa                	lhu	a4,6(a1)
    111c:	bd1a                	sh	a4,56(a0)
    111e:	b11e                	sh	a5,32(a0)
    1120:	8082                	ret

00001122 <TIM_OC3Init>:
    1122:	311e                	lhu	a5,32(a0)
    1124:	0085d803          	lhu	a6,8(a1)
    1128:	07c2                	slli	a5,a5,0x10
    112a:	83c1                	srli	a5,a5,0x10
    112c:	eff7f793          	andi	a5,a5,-257
    1130:	07c2                	slli	a5,a5,0x10
    1132:	83c1                	srli	a5,a5,0x10
    1134:	b11e                	sh	a5,32(a0)
    1136:	311e                	lhu	a5,32(a0)
    1138:	2156                	lhu	a3,4(a0)
    113a:	2d5a                	lhu	a4,28(a0)
    113c:	07c2                	slli	a5,a5,0x10
    113e:	01069613          	slli	a2,a3,0x10
    1142:	0742                	slli	a4,a4,0x10
    1144:	2196                	lhu	a3,0(a1)
    1146:	8341                	srli	a4,a4,0x10
    1148:	f8c77713          	andi	a4,a4,-116
    114c:	8f55                	or	a4,a4,a3
    114e:	21b6                	lhu	a3,2(a1)
    1150:	83c1                	srli	a5,a5,0x10
    1152:	dff7f793          	andi	a5,a5,-513
    1156:	0106e6b3          	or	a3,a3,a6
    115a:	06a2                	slli	a3,a3,0x8
    115c:	8fd5                	or	a5,a5,a3
    115e:	400136b7          	lui	a3,0x40013
    1162:	07c2                	slli	a5,a5,0x10
    1164:	c0068813          	addi	a6,a3,-1024 # 40012c00 <_eusrstack+0x2000ac00>
    1168:	8241                	srli	a2,a2,0x10
    116a:	83c1                	srli	a5,a5,0x10
    116c:	01050e63          	beq	a0,a6,1188 <TIM_OC3Init+0x66>
    1170:	40068693          	addi	a3,a3,1024
    1174:	00d50a63          	beq	a0,a3,1188 <TIM_OC3Init+0x66>
    1178:	400156b7          	lui	a3,0x40015
    117c:	c0068813          	addi	a6,a3,-1024 # 40014c00 <_eusrstack+0x2000cc00>
    1180:	01050463          	beq	a0,a6,1188 <TIM_OC3Init+0x66>
    1184:	02d51f63          	bne	a0,a3,11c2 <TIM_OC3Init+0xa0>
    1188:	76fd                	lui	a3,0xfffff
    118a:	7ff68693          	addi	a3,a3,2047 # fffff7ff <_eusrstack+0xdfff77ff>
    118e:	8ff5                	and	a5,a5,a3
    1190:	25b6                	lhu	a3,10(a1)
    1192:	00c5d803          	lhu	a6,12(a1)
    1196:	06a2                	slli	a3,a3,0x8
    1198:	8fd5                	or	a5,a5,a3
    119a:	21d6                	lhu	a3,4(a1)
    119c:	07c2                	slli	a5,a5,0x10
    119e:	83c1                	srli	a5,a5,0x10
    11a0:	06a2                	slli	a3,a3,0x8
    11a2:	bff7f793          	andi	a5,a5,-1025
    11a6:	8fd5                	or	a5,a5,a3
    11a8:	76f5                	lui	a3,0xffffd
    11aa:	16fd                	addi	a3,a3,-1
    11ac:	8ef1                	and	a3,a3,a2
    11ae:	25f2                	lhu	a2,14(a1)
    11b0:	07c2                	slli	a5,a5,0x10
    11b2:	83c1                	srli	a5,a5,0x10
    11b4:	01066633          	or	a2,a2,a6
    11b8:	0612                	slli	a2,a2,0x4
    11ba:	8ed1                	or	a3,a3,a2
    11bc:	01069613          	slli	a2,a3,0x10
    11c0:	8241                	srli	a2,a2,0x10
    11c2:	a152                	sh	a2,4(a0)
    11c4:	ad5a                	sh	a4,28(a0)
    11c6:	21fa                	lhu	a4,6(a1)
    11c8:	bd5a                	sh	a4,60(a0)
    11ca:	b11e                	sh	a5,32(a0)
    11cc:	8082                	ret

000011ce <TIM_OC4Init>:
    11ce:	311a                	lhu	a4,32(a0)
    11d0:	77fd                	lui	a5,0xfffff
    11d2:	17fd                	addi	a5,a5,-1
    11d4:	8ff9                	and	a5,a5,a4
    11d6:	b11e                	sh	a5,32(a0)
    11d8:	02055803          	lhu	a6,32(a0)
    11dc:	2156                	lhu	a3,4(a0)
    11de:	2d5e                	lhu	a5,28(a0)
    11e0:	7765                	lui	a4,0xffff9
    11e2:	01069613          	slli	a2,a3,0x10
    11e6:	2196                	lhu	a3,0(a1)
    11e8:	cff70713          	addi	a4,a4,-769 # ffff8cff <_eusrstack+0xdfff0cff>
    11ec:	8f7d                	and	a4,a4,a5
    11ee:	77f9                	lui	a5,0xffffe
    11f0:	06a2                	slli	a3,a3,0x8
    11f2:	17fd                	addi	a5,a5,-1
    11f4:	8f55                	or	a4,a4,a3
    11f6:	0107f7b3          	and	a5,a5,a6
    11fa:	21b6                	lhu	a3,2(a1)
    11fc:	0085d803          	lhu	a6,8(a1)
    1200:	0742                	slli	a4,a4,0x10
    1202:	8241                	srli	a2,a2,0x10
    1204:	0106e6b3          	or	a3,a3,a6
    1208:	06b2                	slli	a3,a3,0xc
    120a:	8fd5                	or	a5,a5,a3
    120c:	400136b7          	lui	a3,0x40013
    1210:	07c2                	slli	a5,a5,0x10
    1212:	c0068813          	addi	a6,a3,-1024 # 40012c00 <_eusrstack+0x2000ac00>
    1216:	8341                	srli	a4,a4,0x10
    1218:	83c1                	srli	a5,a5,0x10
    121a:	01050e63          	beq	a0,a6,1236 <TIM_OC4Init+0x68>
    121e:	40068693          	addi	a3,a3,1024
    1222:	00d50a63          	beq	a0,a3,1236 <TIM_OC4Init+0x68>
    1226:	400156b7          	lui	a3,0x40015
    122a:	c0068813          	addi	a6,a3,-1024 # 40014c00 <_eusrstack+0x2000cc00>
    122e:	01050463          	beq	a0,a6,1236 <TIM_OC4Init+0x68>
    1232:	00d51b63          	bne	a0,a3,1248 <TIM_OC4Init+0x7a>
    1236:	76f1                	lui	a3,0xffffc
    1238:	16fd                	addi	a3,a3,-1
    123a:	8ef1                	and	a3,a3,a2
    123c:	25d2                	lhu	a2,12(a1)
    123e:	061a                	slli	a2,a2,0x6
    1240:	8ed1                	or	a3,a3,a2
    1242:	01069613          	slli	a2,a3,0x10
    1246:	8241                	srli	a2,a2,0x10
    1248:	a152                	sh	a2,4(a0)
    124a:	ad5a                	sh	a4,28(a0)
    124c:	21fa                	lhu	a4,6(a1)
    124e:	04e51023          	sh	a4,64(a0)
    1252:	b11e                	sh	a5,32(a0)
    1254:	8082                	ret

00001256 <TIM_BDTRConfig>:
    1256:	21ba                	lhu	a4,2(a1)
    1258:	219e                	lhu	a5,0(a1)
    125a:	8fd9                	or	a5,a5,a4
    125c:	21da                	lhu	a4,4(a1)
    125e:	8fd9                	or	a5,a5,a4
    1260:	21fa                	lhu	a4,6(a1)
    1262:	8fd9                	or	a5,a5,a4
    1264:	259a                	lhu	a4,8(a1)
    1266:	8fd9                	or	a5,a5,a4
    1268:	25ba                	lhu	a4,10(a1)
    126a:	8fd9                	or	a5,a5,a4
    126c:	25da                	lhu	a4,12(a1)
    126e:	8fd9                	or	a5,a5,a4
    1270:	04f51223          	sh	a5,68(a0)
    1274:	8082                	ret

00001276 <TIM_Cmd>:
    1276:	211e                	lhu	a5,0(a0)
    1278:	c589                	beqz	a1,1282 <TIM_Cmd+0xc>
    127a:	0017e793          	ori	a5,a5,1
    127e:	a11e                	sh	a5,0(a0)
    1280:	8082                	ret
    1282:	07c2                	slli	a5,a5,0x10
    1284:	83c1                	srli	a5,a5,0x10
    1286:	9bf9                	andi	a5,a5,-2
    1288:	07c2                	slli	a5,a5,0x10
    128a:	83c1                	srli	a5,a5,0x10
    128c:	bfcd                	j	127e <TIM_Cmd+0x8>

0000128e <TIM_CtrlPWMOutputs>:
    128e:	04455783          	lhu	a5,68(a0)
    1292:	c591                	beqz	a1,129e <TIM_CtrlPWMOutputs+0x10>
    1294:	6721                	lui	a4,0x8
    1296:	8fd9                	or	a5,a5,a4
    1298:	04f51223          	sh	a5,68(a0)
    129c:	8082                	ret
    129e:	07c6                	slli	a5,a5,0x11
    12a0:	83c5                	srli	a5,a5,0x11
    12a2:	bfdd                	j	1298 <TIM_CtrlPWMOutputs+0xa>

000012a4 <TIM_ARRPreloadConfig>:
    12a4:	211e                	lhu	a5,0(a0)
    12a6:	c589                	beqz	a1,12b0 <TIM_ARRPreloadConfig+0xc>
    12a8:	0807e793          	ori	a5,a5,128
    12ac:	a11e                	sh	a5,0(a0)
    12ae:	8082                	ret
    12b0:	07c2                	slli	a5,a5,0x10
    12b2:	83c1                	srli	a5,a5,0x10
    12b4:	f7f7f793          	andi	a5,a5,-129
    12b8:	07c2                	slli	a5,a5,0x10
    12ba:	83c1                	srli	a5,a5,0x10
    12bc:	bfc5                	j	12ac <TIM_ARRPreloadConfig+0x8>

000012be <TIM_OC1PreloadConfig>:
    12be:	2d1e                	lhu	a5,24(a0)
    12c0:	07c2                	slli	a5,a5,0x10
    12c2:	83c1                	srli	a5,a5,0x10
    12c4:	9bdd                	andi	a5,a5,-9
    12c6:	8ddd                	or	a1,a1,a5
    12c8:	ad0e                	sh	a1,24(a0)
    12ca:	8082                	ret

000012cc <TIM_OC2PreloadConfig>:
    12cc:	2d1a                	lhu	a4,24(a0)
    12ce:	77fd                	lui	a5,0xfffff
    12d0:	7ff78793          	addi	a5,a5,2047 # fffff7ff <_eusrstack+0xdfff77ff>
    12d4:	8ff9                	and	a5,a5,a4
    12d6:	05a2                	slli	a1,a1,0x8
    12d8:	8fcd                	or	a5,a5,a1
    12da:	07c2                	slli	a5,a5,0x10
    12dc:	83c1                	srli	a5,a5,0x10
    12de:	ad1e                	sh	a5,24(a0)
    12e0:	8082                	ret

000012e2 <TIM_OC3PreloadConfig>:
    12e2:	2d5e                	lhu	a5,28(a0)
    12e4:	07c2                	slli	a5,a5,0x10
    12e6:	83c1                	srli	a5,a5,0x10
    12e8:	9bdd                	andi	a5,a5,-9
    12ea:	8ddd                	or	a1,a1,a5
    12ec:	ad4e                	sh	a1,28(a0)
    12ee:	8082                	ret

000012f0 <TIM_OC4PreloadConfig>:
    12f0:	2d5a                	lhu	a4,28(a0)
    12f2:	77fd                	lui	a5,0xfffff
    12f4:	7ff78793          	addi	a5,a5,2047 # fffff7ff <_eusrstack+0xdfff77ff>
    12f8:	8ff9                	and	a5,a5,a4
    12fa:	05a2                	slli	a1,a1,0x8
    12fc:	8fcd                	or	a5,a5,a1
    12fe:	07c2                	slli	a5,a5,0x10
    1300:	83c1                	srli	a5,a5,0x10
    1302:	ad5e                	sh	a5,28(a0)
    1304:	8082                	ret

00001306 <TIM_SetCompare1>:
    1306:	b94e                	sh	a1,52(a0)
    1308:	8082                	ret

0000130a <TIM_SetCompare2>:
    130a:	bd0e                	sh	a1,56(a0)
    130c:	8082                	ret

0000130e <TIM_SetCompare3>:
    130e:	bd4e                	sh	a1,60(a0)
    1310:	8082                	ret

00001312 <USART_Init>:
    1312:	f1ffe2ef          	jal	t0,230 <__riscv_save_0>
    1316:	2916                	lhu	a3,16(a0)
    1318:	77f5                	lui	a5,0xffffd
    131a:	17fd                	addi	a5,a5,-1
    131c:	8ff5                	and	a5,a5,a3
    131e:	21f6                	lhu	a3,6(a1)
    1320:	25da                	lhu	a4,12(a1)
    1322:	7179                	addi	sp,sp,-48
    1324:	8fd5                	or	a5,a5,a3
    1326:	a91e                	sh	a5,16(a0)
    1328:	2556                	lhu	a3,12(a0)
    132a:	77fd                	lui	a5,0xfffff
    132c:	9f378793          	addi	a5,a5,-1549 # ffffe9f3 <_eusrstack+0xdfff69f3>
    1330:	8ff5                	and	a5,a5,a3
    1332:	21d6                	lhu	a3,4(a1)
    1334:	842a                	mv	s0,a0
    1336:	c62e                	sw	a1,12(sp)
    1338:	8fd5                	or	a5,a5,a3
    133a:	2596                	lhu	a3,8(a1)
    133c:	8fd5                	or	a5,a5,a3
    133e:	25b6                	lhu	a3,10(a1)
    1340:	8fd5                	or	a5,a5,a3
    1342:	a55e                	sh	a5,12(a0)
    1344:	295e                	lhu	a5,20(a0)
    1346:	07c2                	slli	a5,a5,0x10
    1348:	83c1                	srli	a5,a5,0x10
    134a:	cff7f793          	andi	a5,a5,-769
    134e:	8fd9                	or	a5,a5,a4
    1350:	a95e                	sh	a5,20(a0)
    1352:	0868                	addi	a0,sp,28
    1354:	3415                	jal	d78 <RCC_GetClocksFreq>
    1356:	400147b7          	lui	a5,0x40014
    135a:	80078793          	addi	a5,a5,-2048 # 40013800 <_eusrstack+0x2000b800>
    135e:	45b2                	lw	a1,12(sp)
    1360:	04f41a63          	bne	s0,a5,13b4 <USART_Init+0xa2>
    1364:	57a2                	lw	a5,40(sp)
    1366:	2456                	lhu	a3,12(s0)
    1368:	4765                	li	a4,25
    136a:	02e787b3          	mul	a5,a5,a4
    136e:	06c2                	slli	a3,a3,0x10
    1370:	86c1                	srai	a3,a3,0x10
    1372:	4198                	lw	a4,0(a1)
    1374:	0406d263          	bgez	a3,13b8 <USART_Init+0xa6>
    1378:	0706                	slli	a4,a4,0x1
    137a:	2452                	lhu	a2,12(s0)
    137c:	0642                	slli	a2,a2,0x10
    137e:	02e7d7b3          	divu	a5,a5,a4
    1382:	06400713          	li	a4,100
    1386:	8641                	srai	a2,a2,0x10
    1388:	02e7d6b3          	divu	a3,a5,a4
    138c:	02e7f7b3          	remu	a5,a5,a4
    1390:	0692                	slli	a3,a3,0x4
    1392:	02065563          	bgez	a2,13bc <USART_Init+0xaa>
    1396:	078e                	slli	a5,a5,0x3
    1398:	03278793          	addi	a5,a5,50
    139c:	02e7d7b3          	divu	a5,a5,a4
    13a0:	0077f713          	andi	a4,a5,7
    13a4:	00d767b3          	or	a5,a4,a3
    13a8:	07c2                	slli	a5,a5,0x10
    13aa:	83c1                	srli	a5,a5,0x10
    13ac:	a41e                	sh	a5,8(s0)
    13ae:	6145                	addi	sp,sp,48
    13b0:	ea5fe06f          	j	254 <__riscv_restore_0>
    13b4:	5792                	lw	a5,36(sp)
    13b6:	bf45                	j	1366 <USART_Init+0x54>
    13b8:	070a                	slli	a4,a4,0x2
    13ba:	b7c1                	j	137a <USART_Init+0x68>
    13bc:	0792                	slli	a5,a5,0x4
    13be:	03278793          	addi	a5,a5,50
    13c2:	02e7d7b3          	divu	a5,a5,a4
    13c6:	8bbd                	andi	a5,a5,15
    13c8:	8fd5                	or	a5,a5,a3
    13ca:	bff9                	j	13a8 <USART_Init+0x96>

000013cc <USART_Cmd>:
    13cc:	c591                	beqz	a1,13d8 <USART_Cmd+0xc>
    13ce:	255e                	lhu	a5,12(a0)
    13d0:	6709                	lui	a4,0x2
    13d2:	8fd9                	or	a5,a5,a4
    13d4:	a55e                	sh	a5,12(a0)
    13d6:	8082                	ret
    13d8:	255a                	lhu	a4,12(a0)
    13da:	77f9                	lui	a5,0xffffe
    13dc:	17fd                	addi	a5,a5,-1
    13de:	8ff9                	and	a5,a5,a4
    13e0:	bfd5                	j	13d4 <USART_Cmd+0x8>

000013e2 <USART_SendData>:
    13e2:	1ff5f593          	andi	a1,a1,511
    13e6:	a14e                	sh	a1,4(a0)
    13e8:	8082                	ret

000013ea <USART_GetFlagStatus>:
    13ea:	210a                	lhu	a0,0(a0)
    13ec:	8d6d                	and	a0,a0,a1
    13ee:	00a03533          	snez	a0,a0
    13f2:	8082                	ret

000013f4 <Apt_Ekf_Init>:
    13f4:	00006737          	lui	a4,0x6
    13f8:	a7472787          	flw	fa5,-1420(a4) # 5a74 <_read+0x46>
    13fc:	00006737          	lui	a4,0x6
    1400:	9af1a027          	fsw	fa5,-1632(gp) # 20000210 <Rs>
    1404:	a7872787          	flw	fa5,-1416(a4) # 5a78 <_read+0x4a>
    1408:	00006737          	lui	a4,0x6
    140c:	8cf1a627          	fsw	fa5,-1844(gp) # 2000013c <Ls>
    1410:	a7c72787          	flw	fa5,-1412(a4) # 5a7c <_read+0x4e>
    1414:	00006737          	lui	a4,0x6
    1418:	88f1a427          	fsw	fa5,-1912(gp) # 200000f8 <Flux>
    141c:	000067b7          	lui	a5,0x6
    1420:	a807a787          	flw	fa5,-1408(a5) # 5a80 <_read+0x52>
    1424:	94f1a827          	fsw	fa5,-1712(gp) # 200001c0 <Q_0_0>
    1428:	9401aa23          	sw	zero,-1708(gp) # 200001c4 <Q_0_1>
    142c:	9401ac23          	sw	zero,-1704(gp) # 200001c8 <Q_0_2>
    1430:	9401ae23          	sw	zero,-1700(gp) # 200001cc <Q_0_3>
    1434:	9601a023          	sw	zero,-1696(gp) # 200001d0 <Q_1_0>
    1438:	96f1a227          	fsw	fa5,-1692(gp) # 200001d4 <Q_1_1>
    143c:	9601a423          	sw	zero,-1688(gp) # 200001d8 <Q_1_2>
    1440:	a8472787          	flw	fa5,-1404(a4) # 5a84 <_read+0x56>
    1444:	9601a623          	sw	zero,-1684(gp) # 200001dc <Q_1_3>
    1448:	9601a823          	sw	zero,-1680(gp) # 200001e0 <Q_2_0>
    144c:	9601aa23          	sw	zero,-1676(gp) # 200001e4 <Q_2_1>
    1450:	96f1ac27          	fsw	fa5,-1672(gp) # 200001e8 <Q_2_2>
    1454:	9601ae23          	sw	zero,-1668(gp) # 200001ec <Q_2_3>
    1458:	00006737          	lui	a4,0x6
    145c:	a8872787          	flw	fa5,-1400(a4) # 5a88 <_read+0x5a>
    1460:	9801a023          	sw	zero,-1664(gp) # 200001f0 <Q_3_0>
    1464:	9801a223          	sw	zero,-1660(gp) # 200001f4 <Q_3_1>
    1468:	9801a423          	sw	zero,-1656(gp) # 200001f8 <Q_3_2>
    146c:	98f1a627          	fsw	fa5,-1652(gp) # 200001fc <Q_3_3>
    1470:	000067b7          	lui	a5,0x6
    1474:	a8c7a787          	flw	fa5,-1396(a5) # 5a8c <_read+0x5e>
    1478:	00006737          	lui	a4,0x6
    147c:	98f1a827          	fsw	fa5,-1648(gp) # 20000200 <R_0_0>
    1480:	9801aa23          	sw	zero,-1644(gp) # 20000204 <R_0_1>
    1484:	9801ac23          	sw	zero,-1640(gp) # 20000208 <R_1_0>
    1488:	98f1ae27          	fsw	fa5,-1636(gp) # 2000020c <R_1_1>
    148c:	a9072787          	flw	fa5,-1392(a4) # 5a90 <_read+0x62>
    1490:	9af1a227          	fsw	fa5,-1628(gp) # 20000214 <Ts>
    1494:	000067b7          	lui	a5,0x6
    1498:	a947a787          	flw	fa5,-1388(a5) # 5a94 <_read+0x66>
    149c:	88f1a627          	fsw	fa5,-1908(gp) # 200000fc <H_0_0>
    14a0:	8801a823          	sw	zero,-1904(gp) # 20000100 <H_0_1>
    14a4:	8801aa23          	sw	zero,-1900(gp) # 20000104 <H_0_2>
    14a8:	8801ac23          	sw	zero,-1896(gp) # 20000108 <H_0_3>
    14ac:	8801ae23          	sw	zero,-1892(gp) # 2000010c <H_1_0>
    14b0:	8af1a027          	fsw	fa5,-1888(gp) # 20000110 <H_1_1>
    14b4:	8a01a223          	sw	zero,-1884(gp) # 20000114 <H_1_2>
    14b8:	8a01a423          	sw	zero,-1880(gp) # 20000118 <H_1_3>
    14bc:	000067b7          	lui	a5,0x6
    14c0:	a987a787          	flw	fa5,-1384(a5) # 5a98 <_read+0x6a>
    14c4:	82f1a427          	fsw	fa5,-2008(gp) # 20000098 <B_0_0>
    14c8:	8201a623          	sw	zero,-2004(gp) # 2000009c <B_0_1>
    14cc:	8201a823          	sw	zero,-2000(gp) # 200000a0 <B_1_0>
    14d0:	82f1aa27          	fsw	fa5,-1996(gp) # 200000a4 <B_1_1>
    14d4:	8201ac23          	sw	zero,-1992(gp) # 200000a8 <B_2_0>
    14d8:	8201ae23          	sw	zero,-1988(gp) # 200000ac <B_2_1>
    14dc:	8401a023          	sw	zero,-1984(gp) # 200000b0 <B_3_0>
    14e0:	8401a223          	sw	zero,-1980(gp) # 200000b4 <B_3_1>
    14e4:	8c01a823          	sw	zero,-1840(gp) # 20000140 <P0_0_0>
    14e8:	8c01aa23          	sw	zero,-1836(gp) # 20000144 <P0_0_1>
    14ec:	8c01ac23          	sw	zero,-1832(gp) # 20000148 <P0_0_2>
    14f0:	8c01ae23          	sw	zero,-1828(gp) # 2000014c <P0_0_3>
    14f4:	8e01a023          	sw	zero,-1824(gp) # 20000150 <P0_1_0>
    14f8:	8e01a223          	sw	zero,-1820(gp) # 20000154 <P0_1_1>
    14fc:	8e01a423          	sw	zero,-1816(gp) # 20000158 <P0_1_2>
    1500:	8e01a623          	sw	zero,-1812(gp) # 2000015c <P0_1_3>
    1504:	8e01a823          	sw	zero,-1808(gp) # 20000160 <P0_2_0>
    1508:	8e01aa23          	sw	zero,-1804(gp) # 20000164 <P0_2_1>
    150c:	8e01ac23          	sw	zero,-1800(gp) # 20000168 <P0_2_2>
    1510:	8e01ae23          	sw	zero,-1796(gp) # 2000016c <P0_2_3>
    1514:	9001a023          	sw	zero,-1792(gp) # 20000170 <P0_3_0>
    1518:	9001a223          	sw	zero,-1788(gp) # 20000174 <P0_3_1>
    151c:	9001a423          	sw	zero,-1784(gp) # 20000178 <P0_3_2>
    1520:	9001a623          	sw	zero,-1780(gp) # 2000017c <P0_3_3>
    1524:	8082                	ret

00001526 <Apt_Ekf_Update>:
    1526:	cdbfe2ef          	jal	t0,200 <__riscv_save_12>
    152a:	611c                	flw	fa5,0(a0)
    152c:	7175                	addi	sp,sp,-144
    152e:	e722                	fsw	fs0,140(sp)
    1530:	e526                	fsw	fs1,136(sp)
    1532:	e34a                	fsw	fs2,132(sp)
    1534:	e14e                	fsw	fs3,128(sp)
    1536:	fed2                	fsw	fs4,124(sp)
    1538:	fcd6                	fsw	fs5,120(sp)
    153a:	fada                	fsw	fs6,116(sp)
    153c:	f8de                	fsw	fs7,112(sp)
    153e:	f6e2                	fsw	fs8,108(sp)
    1540:	f4e6                	fsw	fs9,104(sp)
    1542:	f2ea                	fsw	fs10,100(sp)
    1544:	f0ee                	fsw	fs11,96(sp)
    1546:	a8418793          	addi	a5,gp,-1404 # 200002f4 <vs_ab_0_0>
    154a:	e39c                	fsw	fa5,0(a5)
    154c:	615c                	flw	fa5,4(a0)
    154e:	c03e                	sw	a5,0(sp)
    1550:	a8818793          	addi	a5,gp,-1400 # 200002f8 <vs_ab_1_0>
    1554:	e39c                	fsw	fa5,0(a5)
    1556:	651c                	flw	fa5,8(a0)
    1558:	c23e                	sw	a5,4(sp)
    155a:	a1818793          	addi	a5,gp,-1512 # 20000288 <is_ab_0_0>
    155e:	e39c                	fsw	fa5,0(a5)
    1560:	655c                	flw	fa5,12(a0)
    1562:	c43e                	sw	a5,8(sp)
    1564:	a1c18793          	addi	a5,gp,-1508 # 2000028c <is_ab_1_0>
    1568:	e39c                	fsw	fa5,0(a5)
    156a:	691c                	flw	fa5,16(a0)
    156c:	9a018913          	addi	s2,gp,-1632 # 20000210 <Rs>
    1570:	6940                	flw	fs0,20(a0)
    1572:	00f92027          	fsw	fa5,0(s2)
    1576:	20f797d3          	fneg.s	fa5,fa5
    157a:	6d08                	flw	fa0,24(a0)
    157c:	1887f7d3          	fdiv.s	fa5,fa5,fs0
    1580:	8cc18493          	addi	s1,gp,-1844 # 2000013c <Ls>
    1584:	e080                	fsw	fs0,0(s1)
    1586:	8bae                	mv	s7,a1
    1588:	88818413          	addi	s0,gp,-1912 # 200000f8 <Flux>
    158c:	84818513          	addi	a0,gp,-1976 # 200000b8 <F_0_0>
    1590:	84c18593          	addi	a1,gp,-1972 # 200000bc <F_0_1>
    1594:	0005a023          	sw	zero,0(a1)
    1598:	d23e                	sw	a5,36(sp)
    159a:	e008                	fsw	fa0,0(s0)
    159c:	86018d93          	addi	s11,gp,-1952 # 200000d0 <F_1_2>
    15a0:	86418d13          	addi	s10,gp,-1948 # 200000d4 <F_1_3>
    15a4:	18857453          	fdiv.s	fs0,fa0,fs0
    15a8:	e11c                	fsw	fa5,0(a0)
    15aa:	00cba507          	flw	fa0,12(s7)
    15ae:	6ed000ef          	jal	ra,249a <fast_sin>
    15b2:	85018613          	addi	a2,gp,-1968 # 200000c0 <F_0_2>
    15b6:	000067b7          	lui	a5,0x6
    15ba:	a9c7a907          	flw	fs2,-1380(a5) # 5a9c <_read+0x6e>
    15be:	86818c93          	addi	s9,gp,-1944 # 200000d8 <F_2_0>
    15c2:	86c18c13          	addi	s8,gp,-1940 # 200000dc <F_2_1>
    15c6:	87418b13          	addi	s6,gp,-1932 # 200000e4 <F_2_3>
    15ca:	87818a93          	addi	s5,gp,-1928 # 200000e8 <F_3_0>
    15ce:	87c18a13          	addi	s4,gp,-1924 # 200000ec <F_3_1>
    15d2:	9c818993          	addi	s3,gp,-1592 # 20000238 <f1_0_0>
    15d6:	10a47553          	fmul.s	fa0,fs0,fa0
    15da:	6080                	flw	fs0,0(s1)
    15dc:	e208                	fsw	fa0,0(a2)
    15de:	6008                	flw	fa0,0(s0)
    15e0:	18857553          	fdiv.s	fa0,fa0,fs0
    15e4:	008ba407          	flw	fs0,8(s7)
    15e8:	10857453          	fmul.s	fs0,fa0,fs0
    15ec:	00cba507          	flw	fa0,12(s7)
    15f0:	08a97553          	fsub.s	fa0,fs2,fa0
    15f4:	6a7000ef          	jal	ra,249a <fast_sin>
    15f8:	00092707          	flw	fa4,0(s2)
    15fc:	601c                	flw	fa5,0(s0)
    15fe:	10a47553          	fmul.s	fa0,fs0,fa0
    1602:	20e71753          	fneg.s	fa4,fa4
    1606:	6080                	flw	fs0,0(s1)
    1608:	20f797d3          	fneg.s	fa5,fa5
    160c:	18877753          	fdiv.s	fa4,fa4,fs0
    1610:	85418693          	addi	a3,gp,-1964 # 200000c4 <F_0_3>
    1614:	e288                	fsw	fa0,0(a3)
    1616:	00cba507          	flw	fa0,12(s7)
    161a:	08a97553          	fsub.s	fa0,fs2,fa0
    161e:	85818713          	addi	a4,gp,-1960 # 200000c8 <F_1_0>
    1622:	85c18793          	addi	a5,gp,-1956 # 200000cc <F_1_1>
    1626:	00072023          	sw	zero,0(a4)
    162a:	1887f453          	fdiv.s	fs0,fa5,fs0
    162e:	e398                	fsw	fa4,0(a5)
    1630:	66b000ef          	jal	ra,249a <fast_sin>
    1634:	10a47553          	fmul.s	fa0,fs0,fa0
    1638:	6080                	flw	fs0,0(s1)
    163a:	00ada027          	fsw	fa0,0(s11)
    163e:	6008                	flw	fa0,0(s0)
    1640:	18857553          	fdiv.s	fa0,fa0,fs0
    1644:	008ba407          	flw	fs0,8(s7)
    1648:	10857453          	fmul.s	fs0,fa0,fs0
    164c:	00cba507          	flw	fa0,12(s7)
    1650:	64b000ef          	jal	ra,249a <fast_sin>
    1654:	87018793          	addi	a5,gp,-1936 # 200000e0 <F_2_2>
    1658:	0007a023          	sw	zero,0(a5)
    165c:	ca3e                	sw	a5,20(sp)
    165e:	88018793          	addi	a5,gp,-1920 # 200000f0 <F_3_2>
    1662:	00006837          	lui	a6,0x6
    1666:	a9482787          	flw	fa5,-1388(a6) # 5a94 <_read+0x66>
    166a:	10a47553          	fmul.s	fa0,fs0,fa0
    166e:	cc3e                	sw	a5,24(sp)
    1670:	e39c                	fsw	fa5,0(a5)
    1672:	a2418f13          	addi	t5,gp,-1500 # 20000294 <temp_0_0>
    1676:	a2c18e93          	addi	t4,gp,-1492 # 2000029c <temp_0_1>
    167a:	a5018893          	addi	a7,gp,-1456 # 200002c0 <temp_1_3>
    167e:	0008a023          	sw	zero,0(a7)
    1682:	a3418393          	addi	t2,gp,-1484 # 200002a4 <temp_0_2>
    1686:	a5418893          	addi	a7,gp,-1452 # 200002c4 <temp_2_0>
    168a:	0008a023          	sw	zero,0(a7)
    168e:	a3818293          	addi	t0,gp,-1480 # 200002a8 <temp_0_3>
    1692:	a5818893          	addi	a7,gp,-1448 # 200002c8 <temp_2_1>
    1696:	00ad2027          	fsw	fa0,0(s10)
    169a:	6084                	flw	fs1,0(s1)
    169c:	6008                	flw	fa0,0(s0)
    169e:	0008a023          	sw	zero,0(a7)
    16a2:	a5c18893          	addi	a7,gp,-1444 # 200002cc <temp_2_2>
    16a6:	88418813          	addi	a6,gp,-1916 # 200000f4 <F_3_3>
    16aa:	a3c18e13          	addi	t3,gp,-1476 # 200002ac <temp_1_0>
    16ae:	00f8a027          	fsw	fa5,0(a7)
    16b2:	00082023          	sw	zero,0(a6)
    16b6:	a4418313          	addi	t1,gp,-1468 # 200002b4 <temp_1_1>
    16ba:	000e2023          	sw	zero,0(t3)
    16be:	a4c18f93          	addi	t6,gp,-1460 # 200002bc <temp_1_2>
    16c2:	a6418e13          	addi	t3,gp,-1436 # 200002d4 <temp_3_0>
    16c6:	18957553          	fdiv.s	fa0,fa0,fs1
    16ca:	a6018893          	addi	a7,gp,-1440 # 200002d0 <temp_2_3>
    16ce:	000e2023          	sw	zero,0(t3)
    16d2:	0008a023          	sw	zero,0(a7)
    16d6:	a6818e13          	addi	t3,gp,-1432 # 200002d8 <temp_3_1>
    16da:	000e2023          	sw	zero,0(t3)
    16de:	00f32027          	fsw	fa5,0(t1)
    16e2:	a6c18e13          	addi	t3,gp,-1428 # 200002dc <temp_3_2>
    16e6:	000e2023          	sw	zero,0(t3)
    16ea:	a7018e13          	addi	t3,gp,-1424 # 200002e0 <temp_3_3>
    16ee:	00ff2027          	fsw	fa5,0(t5)
    16f2:	00fe2027          	fsw	fa5,0(t3)
    16f6:	00092787          	flw	fa5,0(s2)
    16fa:	000ea023          	sw	zero,0(t4)
    16fe:	0003a023          	sw	zero,0(t2)
    1702:	20f797d3          	fneg.s	fa5,fa5
    1706:	0002a023          	sw	zero,0(t0)
    170a:	000fa023          	sw	zero,0(t6)
    170e:	1897f453          	fdiv.s	fs0,fa5,fs1
    1712:	000ca023          	sw	zero,0(s9)
    1716:	000c2023          	sw	zero,0(s8)
    171a:	000b2023          	sw	zero,0(s6)
    171e:	000aa023          	sw	zero,0(s5)
    1722:	000a2023          	sw	zero,0(s4)
    1726:	000ba987          	flw	fs3,0(s7)
    172a:	008ba487          	flw	fs1,8(s7)
    172e:	109574d3          	fmul.s	fs1,fa0,fs1
    1732:	00cba507          	flw	fa0,12(s7)
    1736:	565000ef          	jal	ra,249a <fast_sin>
    173a:	10a4f553          	fmul.s	fa0,fs1,fa0
    173e:	609c                	flw	fa5,0(s1)
    1740:	51347443          	fmadd.s	fs0,fs0,fs3,fa0
    1744:	00092507          	flw	fa0,0(s2)
    1748:	004ba987          	flw	fs3,4(s7)
    174c:	20a51553          	fneg.s	fa0,fa0
    1750:	0089a027          	fsw	fs0,0(s3)
    1754:	6000                	flw	fs0,0(s0)
    1756:	18f574d3          	fdiv.s	fs1,fa0,fa5
    175a:	008ba507          	flw	fa0,8(s7)
    175e:	18f47453          	fdiv.s	fs0,fs0,fa5
    1762:	10a47453          	fmul.s	fs0,fs0,fa0
    1766:	00cba507          	flw	fa0,12(s7)
    176a:	08a97553          	fsub.s	fa0,fs2,fa0
    176e:	52d000ef          	jal	ra,249a <fast_sin>
    1772:	10a47553          	fmul.s	fa0,fs0,fa0
    1776:	008ba107          	flw	ft2,8(s7)
    177a:	84818513          	addi	a0,gp,-1976 # 200000b8 <F_0_0>
    177e:	5134f547          	fmsub.s	fa0,fs1,fs3,fa0
    1782:	a2418f13          	addi	t5,gp,-1500 # 20000294 <temp_0_0>
    1786:	00052e87          	flw	ft9,0(a0)
    178a:	000f2787          	flw	fa5,0(t5)
    178e:	9ca1a627          	fsw	fa0,-1588(gp) # 2000023c <f1_1_0>
    1792:	9c01a823          	sw	zero,-1584(gp) # 20000240 <f1_2_0>
    1796:	9c21aa27          	fsw	ft2,-1580(gp) # 20000244 <f1_3_0>
    179a:	9a41a607          	flw	fa2,-1628(gp) # 20000214 <Ts>
    179e:	84c18593          	addi	a1,gp,-1972 # 200000bc <F_0_1>
    17a2:	a2c18e93          	addi	t4,gp,-1492 # 2000029c <temp_0_1>
    17a6:	79d67ec3          	fmadd.s	ft9,fa2,ft9,fa5
    17aa:	0005af07          	flw	ft10,0(a1)
    17ae:	000ea787          	flw	fa5,0(t4)
    17b2:	85018613          	addi	a2,gp,-1968 # 200000c0 <F_0_2>
    17b6:	a3418393          	addi	t2,gp,-1484 # 200002a4 <temp_0_2>
    17ba:	79e67f43          	fmadd.s	ft10,fa2,ft10,fa5
    17be:	6218                	flw	fa4,0(a2)
    17c0:	0003a787          	flw	fa5,0(t2)
    17c4:	78e677c3          	fmadd.s	fa5,fa2,fa4,fa5
    17c8:	85418693          	addi	a3,gp,-1964 # 200000c4 <F_0_3>
    17cc:	6280                	flw	fs0,0(a3)
    17ce:	9de1ae27          	fsw	ft10,-1572(gp) # 2000024c <f2_0_1>
    17d2:	9ef1a027          	fsw	fa5,-1568(gp) # 20000250 <f2_0_2>
    17d6:	a3818293          	addi	t0,gp,-1480 # 200002a8 <temp_0_3>
    17da:	0002a707          	flw	fa4,0(t0)
    17de:	a3c18e13          	addi	t3,gp,-1476 # 200002ac <temp_1_0>
    17e2:	85818713          	addi	a4,gp,-1960 # 200000c8 <F_1_0>
    17e6:	70867443          	fmadd.s	fs0,fa2,fs0,fa4
    17ea:	00072887          	flw	fa7,0(a4)
    17ee:	000e2707          	flw	fa4,0(t3)
    17f2:	9dd1ac27          	fsw	ft9,-1576(gp) # 20000248 <f2_0_0>
    17f6:	a4418313          	addi	t1,gp,-1468 # 200002b4 <temp_1_1>
    17fa:	85c18793          	addi	a5,gp,-1956 # 200000cc <F_1_1>
    17fe:	711678c3          	fmadd.s	fa7,fa2,fa7,fa4
    1802:	0007ae07          	flw	ft8,0(a5)
    1806:	00032707          	flw	fa4,0(t1)
    180a:	a4c18f93          	addi	t6,gp,-1460 # 200002bc <temp_1_2>
    180e:	71c67e43          	fmadd.s	ft8,fa2,ft8,fa4
    1812:	000da687          	flw	fa3,0(s11)
    1816:	000fa707          	flw	fa4,0(t6)
    181a:	000d2587          	flw	fa1,0(s10)
    181e:	70d67743          	fmadd.s	fa4,fa2,fa3,fa4
    1822:	9fc1a627          	fsw	ft8,-1556(gp) # 2000025c <f2_1_1>
    1826:	9f11a427          	fsw	fa7,-1560(gp) # 20000258 <f2_1_0>
    182a:	9ee1a827          	fsw	fa4,-1552(gp) # 20000260 <f2_1_2>
    182e:	a5018493          	addi	s1,gp,-1456 # 200002c0 <temp_1_3>
    1832:	6094                	flw	fa3,0(s1)
    1834:	a5418493          	addi	s1,gp,-1452 # 200002c4 <temp_2_0>
    1838:	68b676c3          	fmadd.s	fa3,fa2,fa1,fa3
    183c:	000cad07          	flw	fs10,0(s9)
    1840:	9e81a227          	fsw	fs0,-1564(gp) # 20000254 <f2_0_3>
    1844:	9ed1aa27          	fsw	fa3,-1548(gp) # 20000264 <f2_1_3>
    1848:	e636                	fsw	fa3,12(sp)
    184a:	6094                	flw	fa3,0(s1)
    184c:	a5818493          	addi	s1,gp,-1448 # 200002c8 <temp_2_1>
    1850:	69a676c3          	fmadd.s	fa3,fa2,fs10,fa3
    1854:	e836                	fsw	fa3,16(sp)
    1856:	9ed1ac27          	fsw	fa3,-1544(gp) # 20000268 <f2_2_0>
    185a:	000c2587          	flw	fa1,0(s8)
    185e:	6094                	flw	fa3,0(s1)
    1860:	44d2                	lw	s1,20(sp)
    1862:	68b676c3          	fmadd.s	fa3,fa2,fa1,fa3
    1866:	608c                	flw	fa1,0(s1)
    1868:	a5c18493          	addi	s1,gp,-1444 # 200002cc <temp_2_2>
    186c:	000b2d07          	flw	fs10,0(s6)
    1870:	000a2387          	flw	ft7,0(s4)
    1874:	e0068653          	fmv.x.w	a2,fa3
    1878:	9ed1ae27          	fsw	fa3,-1540(gp) # 2000026c <f2_2_1>
    187c:	6094                	flw	fa3,0(s1)
    187e:	a6018893          	addi	a7,gp,-1440 # 200002d0 <temp_2_3>
    1882:	68b676c3          	fmadd.s	fa3,fa2,fa1,fa3
    1886:	0008a587          	flw	fa1,0(a7)
    188a:	a6418493          	addi	s1,gp,-1436 # 200002d4 <temp_3_0>
    188e:	000aa807          	flw	fa6,0(s5)
    1892:	59a67d43          	fmadd.s	fs10,fa2,fs10,fa1
    1896:	608c                	flw	fa1,0(s1)
    1898:	a6818493          	addi	s1,gp,-1432 # 200002d8 <temp_3_1>
    189c:	0004ac87          	flw	fs9,0(s1)
    18a0:	44e2                	lw	s1,24(sp)
    18a2:	c8767cc3          	fmadd.s	fs9,fa2,ft7,fs9
    18a6:	0004a387          	flw	ft7,0(s1)
    18aa:	a6c18493          	addi	s1,gp,-1428 # 200002dc <temp_3_2>
    18ae:	59067843          	fmadd.s	fa6,fa2,fa6,fa1
    18b2:	608c                	flw	fa1,0(s1)
    18b4:	a7018493          	addi	s1,gp,-1424 # 200002e0 <temp_3_3>
    18b8:	88418813          	addi	a6,gp,-1916 # 200000f4 <F_3_3>
    18bc:	587673c3          	fmadd.s	ft7,fa2,ft7,fa1
    18c0:	00082007          	flw	ft0,0(a6)
    18c4:	608c                	flw	fa1,0(s1)
    18c6:	a191a627          	fsw	fs9,-1524(gp) # 2000027c <f2_3_1>
    18ca:	580675c3          	fmadd.s	fa1,fa2,ft0,fa1
    18ce:	4482                	lw	s1,0(sp)
    18d0:	a071a827          	fsw	ft7,-1520(gp) # 20000280 <f2_3_2>
    18d4:	a0b1aa27          	fsw	fa1,-1516(gp) # 20000284 <f2_3_3>
    18d8:	0004a007          	flw	ft0,0(s1)
    18dc:	8281a187          	flw	ft3,-2008(gp) # 20000098 <B_0_0>
    18e0:	0009a207          	flw	ft4,0(s3)
    18e4:	4492                	lw	s1,4(sp)
    18e6:	2001f243          	fmadd.s	ft4,ft3,ft0,ft4
    18ea:	0004a087          	flw	ft1,0(s1)
    18ee:	82c1a187          	flw	ft3,-2004(gp) # 2000009c <B_0_1>
    18f2:	a0d1a027          	fsw	fa3,-1536(gp) # 20000270 <f2_2_2>
    18f6:	a1a1a227          	fsw	fs10,-1532(gp) # 20000274 <f2_2_3>
    18fa:	2011f1c3          	fmadd.s	ft3,ft3,ft1,ft4
    18fe:	a101a427          	fsw	fa6,-1528(gp) # 20000278 <f2_3_0>
    1902:	000ba207          	flw	ft4,0(s7)
    1906:	00000413          	li	s0,0
    190a:	203674c3          	fmadd.s	fs1,fa2,ft3,ft4
    190e:	ea26                	fsw	fs1,20(sp)
    1910:	9a91a427          	fsw	fs1,-1624(gp) # 20000218 <X_pred_0_0>
    1914:	8301a187          	flw	ft3,-2000(gp) # 200000a0 <B_1_0>
    1918:	503071c3          	fmadd.s	ft3,ft0,ft3,fa0
    191c:	8341a507          	flw	fa0,-1996(gp) # 200000a4 <B_1_1>
    1920:	18a0f543          	fmadd.s	fa0,ft1,fa0,ft3
    1924:	004ba187          	flw	ft3,4(s7)
    1928:	18a67543          	fmadd.s	fa0,fa2,fa0,ft3
    192c:	9aa1a627          	fsw	fa0,-1620(gp) # 2000021c <X_pred_1_0>
    1930:	ec2a                	fsw	fa0,24(sp)
    1932:	8381a187          	flw	ft3,-1992(gp) # 200000a8 <B_2_0>
    1936:	f0040553          	fmv.w.x	fa0,s0
    193a:	503071c3          	fmadd.s	ft3,ft0,ft3,fa0
    193e:	83c1a507          	flw	fa0,-1988(gp) # 200000ac <B_2_1>
    1942:	18a0f543          	fmadd.s	fa0,ft1,fa0,ft3
    1946:	10a67543          	fmadd.s	fa0,fa2,fa0,ft2
    194a:	9aa1a827          	fsw	fa0,-1616(gp) # 20000220 <X_pred_2_0>
    194e:	ee2a                	fsw	fa0,28(sp)
    1950:	8401a507          	flw	fa0,-1984(gp) # 200000b0 <B_3_0>
    1954:	10a07043          	fmadd.s	ft0,ft0,fa0,ft2
    1958:	8441a507          	flw	fa0,-1980(gp) # 200000b4 <B_3_1>
    195c:	00a0f543          	fmadd.s	fa0,ft1,fa0,ft0
    1960:	00cba007          	flw	ft0,12(s7)
    1964:	00a67643          	fmadd.s	fa2,fa2,fa0,ft0
    1968:	6572                	flw	fa0,28(sp)
    196a:	9ac1aa27          	fsw	fa2,-1612(gp) # 20000224 <X_pred_3_0>
    196e:	88c1a087          	flw	ft1,-1908(gp) # 200000fc <H_0_0>
    1972:	8901a107          	flw	ft2,-1904(gp) # 20000100 <H_0_1>
    1976:	f032                	fsw	fa2,32(sp)
    1978:	6662                	flw	fa2,24(sp)
    197a:	8941a307          	flw	ft6,-1900(gp) # 20000104 <H_0_2>
    197e:	10267653          	fmul.s	fa2,fa2,ft2
    1982:	8981a287          	flw	ft5,-1896(gp) # 20000108 <H_0_3>
    1986:	6014f643          	fmadd.s	fa2,fs1,ft1,fa2
    198a:	60657643          	fmadd.s	fa2,fa0,ft6,fa2
    198e:	7502                	flw	fa0,32(sp)
    1990:	60557643          	fmadd.s	fa2,fa0,ft5,fa2
    1994:	9cc1a027          	fsw	fa2,-1600(gp) # 20000230 <Y_pred_0_0>
    1998:	89c1a207          	flw	ft4,-1892(gp) # 2000010c <H_1_0>
    199c:	8a01a187          	flw	ft3,-1888(gp) # 20000110 <H_1_1>
    19a0:	8a41a007          	flw	ft0,-1884(gp) # 20000114 <H_1_2>
    19a4:	f832                	fsw	fa2,48(sp)
    19a6:	8a81a607          	flw	fa2,-1880(gp) # 20000118 <H_1_3>
    19aa:	e032                	fsw	fa2,0(sp)
    19ac:	6662                	flw	fa2,24(sp)
    19ae:	10367653          	fmul.s	fa2,fa2,ft3
    19b2:	6044f643          	fmadd.s	fa2,fs1,ft4,fa2
    19b6:	64f2                	flw	fs1,28(sp)
    19b8:	6004f643          	fmadd.s	fa2,fs1,ft0,fa2
    19bc:	20a504d3          	fmv.s	fs1,fa0
    19c0:	6502                	flw	fa0,0(sp)
    19c2:	60a4f643          	fmadd.s	fa2,fs1,fa0,fa2
    19c6:	fa32                	fsw	fa2,52(sp)
    19c8:	44a2                	lw	s1,8(sp)
    19ca:	9cc1a227          	fsw	fa2,-1596(gp) # 20000234 <Y_pred_1_0>
    19ce:	6090                	flw	fa2,0(s1)
    19d0:	5492                	lw	s1,36(sp)
    19d2:	8d41a487          	flw	fs1,-1836(gp) # 20000144 <P0_0_1>
    19d6:	9ac1ac27          	fsw	fa2,-1608(gp) # 20000228 <Y_0_0>
    19da:	fc32                	fsw	fa2,56(sp)
    19dc:	6090                	flw	fa2,0(s1)
    19de:	8e41ac07          	flw	fs8,-1820(gp) # 20000154 <P0_1_1>
    19e2:	9ac1ae27          	fsw	fa2,-1604(gp) # 2000022c <Y_1_0>
    19e6:	fe32                	fsw	fa2,60(sp)
    19e8:	118f7653          	fmul.s	fa2,ft10,fs8
    19ec:	9041ad87          	flw	fs11,-1788(gp) # 20000174 <P0_3_1>
    19f0:	8e81ab07          	flw	fs6,-1816(gp) # 20000158 <P0_1_2>
    19f4:	8d81aa87          	flw	fs5,-1832(gp) # 20000148 <P0_0_2>
    19f8:	8ec1aa07          	flw	fs4,-1812(gp) # 2000015c <P0_1_3>
    19fc:	609ef643          	fmadd.s	fa2,ft9,fs1,fa2
    1a00:	8f41a487          	flw	fs1,-1804(gp) # 20000164 <P0_2_1>
    1a04:	8fc1af87          	flw	ft11,-1796(gp) # 2000016c <P0_2_3>
    1a08:	9081a507          	flw	fa0,-1784(gp) # 20000178 <P0_3_2>
    1a0c:	6097f643          	fmadd.s	fa2,fa5,fs1,fa2
    1a10:	8f81a487          	flw	fs1,-1800(gp) # 20000168 <P0_2_2>
    1a14:	8e418493          	addi	s1,gp,-1820 # 20000154 <P0_1_1>
    1a18:	8d818a13          	addi	s4,gp,-1832 # 20000148 <P0_0_2>
    1a1c:	8e818a93          	addi	s5,gp,-1816 # 20000158 <P0_1_2>
    1a20:	61b47643          	fmadd.s	fa2,fs0,fs11,fa2
    1a24:	e0060cd3          	fmv.x.w	s9,fa2
    1a28:	116f7653          	fmul.s	fa2,ft10,fs6
    1a2c:	615ef643          	fmadd.s	fa2,ft9,fs5,fa2
    1a30:	6097f643          	fmadd.s	fa2,fa5,fs1,fa2
    1a34:	9081a487          	flw	fs1,-1784(gp) # 20000178 <P0_3_2>
    1a38:	609479c3          	fmadd.s	fs3,fs0,fs1,fa2
    1a3c:	114f7653          	fmul.s	fa2,ft10,fs4
    1a40:	8dc1a487          	flw	fs1,-1828(gp) # 2000014c <P0_0_3>
    1a44:	609ef643          	fmadd.s	fa2,ft9,fs1,fa2
    1a48:	90c1a487          	flw	fs1,-1780(gp) # 2000017c <P0_3_3>
    1a4c:	61f7f643          	fmadd.s	fa2,fa5,ft11,fa2
    1a50:	60947943          	fmadd.s	fs2,fs0,fs1,fa2
    1a54:	118e7653          	fmul.s	fa2,ft8,fs8
    1a58:	8d41a487          	flw	fs1,-1836(gp) # 20000144 <P0_0_1>
    1a5c:	6098f643          	fmadd.s	fa2,fa7,fs1,fa2
    1a60:	8f41a487          	flw	fs1,-1804(gp) # 20000164 <P0_2_1>
    1a64:	60977643          	fmadd.s	fa2,fa4,fs1,fa2
    1a68:	64b2                	flw	fs1,12(sp)
    1a6a:	61b4f643          	fmadd.s	fa2,fs1,fs11,fa2
    1a6e:	8f81a487          	flw	fs1,-1800(gp) # 20000168 <P0_2_2>
    1a72:	e0b2                	fsw	fa2,64(sp)
    1a74:	116e7653          	fmul.s	fa2,ft8,fs6
    1a78:	6158f643          	fmadd.s	fa2,fa7,fs5,fa2
    1a7c:	60977643          	fmadd.s	fa2,fa4,fs1,fa2
    1a80:	64b2                	flw	fs1,12(sp)
    1a82:	60a4f643          	fmadd.s	fa2,fs1,fa0,fa2
    1a86:	8dc1a507          	flw	fa0,-1828(gp) # 2000014c <P0_0_3>
    1a8a:	e232                	fsw	fa2,4(sp)
    1a8c:	114e7653          	fmul.s	fa2,ft8,fs4
    1a90:	60a8f643          	fmadd.s	fa2,fa7,fa0,fa2
    1a94:	20948553          	fmv.s	fa0,fs1
    1a98:	90c1a487          	flw	fs1,-1780(gp) # 2000017c <P0_3_3>
    1a9c:	61f77643          	fmadd.s	fa2,fa4,ft11,fa2
    1aa0:	609574c3          	fmadd.s	fs1,fa0,fs1,fa2
    1aa4:	f0060653          	fmv.w.x	fa2,a2
    1aa8:	6542                	flw	fa0,16(sp)
    1aaa:	8d41ab87          	flw	fs7,-1836(gp) # 20000144 <P0_0_1>
    1aae:	11867653          	fmul.s	fa2,fa2,fs8
    1ab2:	118cfc53          	fmul.s	fs8,fs9,fs8
    1ab6:	61757643          	fmadd.s	fa2,fa0,fs7,fa2
    1aba:	8f41a507          	flw	fa0,-1804(gp) # 20000164 <P0_2_1>
    1abe:	8dc1ab87          	flw	fs7,-1828(gp) # 2000014c <P0_0_3>
    1ac2:	60a6f643          	fmadd.s	fa2,fa3,fa0,fa2
    1ac6:	6542                	flw	fa0,16(sp)
    1ac8:	61bd7643          	fmadd.s	fa2,fs10,fs11,fa2
    1acc:	e0060c53          	fmv.x.w	s8,fa2
    1ad0:	f0060653          	fmv.w.x	fa2,a2
    1ad4:	11667653          	fmul.s	fa2,fa2,fs6
    1ad8:	116cfb53          	fmul.s	fs6,fs9,fs6
    1adc:	61557643          	fmadd.s	fa2,fa0,fs5,fa2
    1ae0:	8f81a507          	flw	fa0,-1800(gp) # 20000168 <P0_2_2>
    1ae4:	b1587b43          	fmadd.s	fs6,fa6,fs5,fs6
    1ae8:	60a6f643          	fmadd.s	fa2,fa3,fa0,fa2
    1aec:	9081a507          	flw	fa0,-1784(gp) # 20000178 <P0_3_2>
    1af0:	60ad7643          	fmadd.s	fa2,fs10,fa0,fa2
    1af4:	f0060553          	fmv.w.x	fa0,a2
    1af8:	11457553          	fmul.s	fa0,fa0,fs4
    1afc:	f432                	fsw	fa2,40(sp)
    1afe:	114cfa53          	fmul.s	fs4,fs9,fs4
    1b02:	e00507d3          	fmv.x.w	a5,fa0
    1b06:	6542                	flw	fa0,16(sp)
    1b08:	a1787a43          	fmadd.s	fs4,fa6,fs7,fs4
    1b0c:	f0078653          	fmv.w.x	fa2,a5
    1b10:	61757543          	fmadd.s	fa0,fa0,fs7,fa2
    1b14:	a1f3fa43          	fmadd.s	fs4,ft7,ft11,fs4
    1b18:	51f6f643          	fmadd.s	fa2,fa3,ft11,fa0
    1b1c:	e00607d3          	fmv.x.w	a5,fa2
    1b20:	90c1a607          	flw	fa2,-1780(gp) # 2000017c <P0_3_3>
    1b24:	f0078553          	fmv.w.x	fa0,a5
    1b28:	50cd7643          	fmadd.s	fa2,fs10,fa2,fa0
    1b2c:	e432                	fsw	fa2,8(sp)
    1b2e:	8d41a607          	flw	fa2,-1836(gp) # 20000144 <P0_0_1>
    1b32:	c0c87c43          	fmadd.s	fs8,fa6,fa2,fs8
    1b36:	8f41a607          	flw	fa2,-1804(gp) # 20000164 <P0_2_1>
    1b3a:	8f418913          	addi	s2,gp,-1804 # 20000164 <P0_2_1>
    1b3e:	c0c3fc43          	fmadd.s	fs8,ft7,fa2,fs8
    1b42:	c1b5f643          	fmadd.s	fa2,fa1,fs11,fs8
    1b46:	e2b2                	fsw	fa2,68(sp)
    1b48:	8f81a607          	flw	fa2,-1800(gp) # 20000168 <P0_2_2>
    1b4c:	b0c3fb43          	fmadd.s	fs6,ft7,fa2,fs6
    1b50:	9081a607          	flw	fa2,-1784(gp) # 20000178 <P0_3_2>
    1b54:	90818393          	addi	t2,gp,-1784 # 20000178 <P0_3_2>
    1b58:	b0c5f643          	fmadd.s	fa2,fa1,fa2,fs6
    1b5c:	f632                	fsw	fa2,44(sp)
    1b5e:	90c1a607          	flw	fa2,-1780(gp) # 2000017c <P0_3_3>
    1b62:	90c18713          	addi	a4,gp,-1780 # 2000017c <P0_3_3>
    1b66:	a0c5f643          	fmadd.s	fa2,fa1,fa2,fs4
    1b6a:	f232                	fsw	fa2,36(sp)
    1b6c:	f00c8653          	fmv.w.x	fa2,s9
    1b70:	10cf7fd3          	fmul.s	ft11,ft10,fa2
    1b74:	8e01a607          	flw	fa2,-1824(gp) # 20000150 <P0_1_0>
    1b78:	10cf7b53          	fmul.s	fs6,ft10,fa2
    1b7c:	8d01a607          	flw	fa2,-1840(gp) # 20000140 <P0_0_0>
    1b80:	b0cefb43          	fmadd.s	fs6,ft9,fa2,fs6
    1b84:	8f01a607          	flw	fa2,-1808(gp) # 20000160 <P0_2_0>
    1b88:	b0c7fb43          	fmadd.s	fs6,fa5,fa2,fs6
    1b8c:	9001a607          	flw	fa2,-1792(gp) # 20000170 <P0_3_0>
    1b90:	b0c47b43          	fmadd.s	fs6,fs0,fa2,fs6
    1b94:	f00c8653          	fmv.w.x	fa2,s9
    1b98:	10ce7a53          	fmul.s	fs4,ft8,fa2
    1b9c:	f96efb43          	fmadd.s	fs6,ft9,fs6,ft11
    1ba0:	9501af87          	flw	ft11,-1712(gp) # 200001c0 <Q_0_0>
    1ba4:	6632                	flw	fa2,12(sp)
    1ba6:	b137fb43          	fmadd.s	fs6,fa5,fs3,fs6
    1baa:	b1247b43          	fmadd.s	fs6,fs0,fs2,fs6
    1bae:	01fb7b53          	fadd.s	fs6,fs6,ft11
    1bb2:	a168fa43          	fmadd.s	fs4,fa7,fs6,fs4
    1bb6:	9161a827          	fsw	fs6,-1776(gp) # 20000180 <P_pred_0_0>
    1bba:	9541af87          	flw	ft11,-1708(gp) # 200001c4 <Q_0_1>
    1bbe:	a1377a43          	fmadd.s	fs4,fa4,fs3,fs4
    1bc2:	a1267a43          	fmadd.s	fs4,fa2,fs2,fs4
    1bc6:	f0060653          	fmv.w.x	fa2,a2
    1bca:	01fa7a53          	fadd.s	fs4,fs4,ft11
    1bce:	11467c53          	fmul.s	fs8,fa2,fs4
    1bd2:	6642                	flw	fa2,16(sp)
    1bd4:	9141aa27          	fsw	fs4,-1772(gp) # 20000184 <P_pred_0_1>
    1bd8:	9581af87          	flw	ft11,-1704(gp) # 200001c8 <Q_0_2>
    1bdc:	c1667c43          	fmadd.s	fs8,fa2,fs6,fs8
    1be0:	c136fc43          	fmadd.s	fs8,fa3,fs3,fs8
    1be4:	114cf9d3          	fmul.s	fs3,fs9,fs4
    1be8:	c12d7c43          	fmadd.s	fs8,fs10,fs2,fs8
    1bec:	996879c3          	fmadd.s	fs3,fa6,fs6,fs3
    1bf0:	01fc7c53          	fadd.s	fs8,fs8,ft11
    1bf4:	9983f9c3          	fmadd.s	fs3,ft7,fs8,fs3
    1bf8:	9181ac27          	fsw	fs8,-1768(gp) # 20000188 <P_pred_0_2>
    1bfc:	95c1af87          	flw	ft11,-1700(gp) # 200001cc <Q_0_3>
    1c00:	9925f9c3          	fmadd.s	fs3,fa1,fs2,fs3
    1c04:	01f9f9d3          	fadd.s	fs3,fs3,ft11
    1c08:	9131ae27          	fsw	fs3,-1764(gp) # 2000018c <P_pred_0_3>
    1c0c:	6606                	flw	fa2,64(sp)
    1c0e:	9001a507          	flw	fa0,-1792(gp) # 20000170 <P0_3_0>
    1c12:	10cf7fd3          	fmul.s	ft11,ft10,fa2
    1c16:	8e01a607          	flw	fa2,-1824(gp) # 20000150 <P0_1_0>
    1c1a:	10ce7ad3          	fmul.s	fs5,ft8,fa2
    1c1e:	8d01a607          	flw	fa2,-1840(gp) # 20000140 <P0_0_0>
    1c22:	a8c8fac3          	fmadd.s	fs5,fa7,fa2,fs5
    1c26:	8f01a607          	flw	fa2,-1808(gp) # 20000160 <P0_2_0>
    1c2a:	a8c77ac3          	fmadd.s	fs5,fa4,fa2,fs5
    1c2e:	6632                	flw	fa2,12(sp)
    1c30:	a8a67ac3          	fmadd.s	fs5,fa2,fa0,fs5
    1c34:	6612                	flw	fa2,4(sp)
    1c36:	8e01a507          	flw	fa0,-1824(gp) # 20000150 <P0_1_0>
    1c3a:	f95efac3          	fmadd.s	fs5,ft9,fs5,ft11
    1c3e:	9601af87          	flw	ft11,-1696(gp) # 200001d0 <Q_1_0>
    1c42:	a8c7fac3          	fmadd.s	fs5,fa5,fa2,fs5
    1c46:	6606                	flw	fa2,64(sp)
    1c48:	10ce7bd3          	fmul.s	fs7,ft8,fa2
    1c4c:	a8947ac3          	fmadd.s	fs5,fs0,fs1,fs5
    1c50:	6612                	flw	fa2,4(sp)
    1c52:	01fafad3          	fadd.s	fs5,fs5,ft11
    1c56:	b958fbc3          	fmadd.s	fs7,fa7,fs5,fs7
    1c5a:	9351a027          	fsw	fs5,-1760(gp) # 20000190 <P_pred_1_0>
    1c5e:	9641af87          	flw	ft11,-1692(gp) # 200001d4 <Q_1_1>
    1c62:	b8c77bc3          	fmadd.s	fs7,fa4,fa2,fs7
    1c66:	6632                	flw	fa2,12(sp)
    1c68:	b8967bc3          	fmadd.s	fs7,fa2,fs1,fs7
    1c6c:	f0060653          	fmv.w.x	fa2,a2
    1c70:	01fbfbd3          	fadd.s	fs7,fs7,ft11
    1c74:	11767953          	fmul.s	fs2,fa2,fs7
    1c78:	6642                	flw	fa2,16(sp)
    1c7a:	9371a227          	fsw	fs7,-1756(gp) # 20000194 <P_pred_1_1>
    1c7e:	9681af87          	flw	ft11,-1688(gp) # 200001d8 <Q_1_2>
    1c82:	91567943          	fmadd.s	fs2,fa2,fs5,fs2
    1c86:	6612                	flw	fa2,4(sp)
    1c88:	90c6f943          	fmadd.s	fs2,fa3,fa2,fs2
    1c8c:	909d7943          	fmadd.s	fs2,fs10,fs1,fs2
    1c90:	01f97953          	fadd.s	fs2,fs2,ft11
    1c94:	117cffd3          	fmul.s	ft11,fs9,fs7
    1c98:	9321a427          	fsw	fs2,-1752(gp) # 20000198 <P_pred_1_2>
    1c9c:	f9587fc3          	fmadd.s	ft11,fa6,fs5,ft11
    1ca0:	f923ffc3          	fmadd.s	ft11,ft7,fs2,ft11
    1ca4:	f895ffc3          	fmadd.s	ft11,fa1,fs1,ft11
    1ca8:	96c1a487          	flw	fs1,-1684(gp) # 200001dc <Q_1_3>
    1cac:	009ff653          	fadd.s	fa2,ft11,fs1
    1cb0:	92c1a627          	fsw	fa2,-1748(gp) # 2000019c <P_pred_1_3>
    1cb4:	e232                	fsw	fa2,4(sp)
    1cb6:	f00c0653          	fmv.w.x	fa2,s8
    1cba:	10cf7fd3          	fmul.s	ft11,ft10,fa2
    1cbe:	f0060653          	fmv.w.x	fa2,a2
    1cc2:	10a674d3          	fmul.s	fs1,fa2,fa0
    1cc6:	6642                	flw	fa2,16(sp)
    1cc8:	8d01a507          	flw	fa0,-1840(gp) # 20000140 <P0_0_0>
    1ccc:	48a674c3          	fmadd.s	fs1,fa2,fa0,fs1
    1cd0:	8f01a607          	flw	fa2,-1808(gp) # 20000160 <P0_2_0>
    1cd4:	48c6f4c3          	fmadd.s	fs1,fa3,fa2,fs1
    1cd8:	9001a607          	flw	fa2,-1792(gp) # 20000170 <P0_3_0>
    1cdc:	48cd74c3          	fmadd.s	fs1,fs10,fa2,fs1
    1ce0:	7622                	flw	fa2,40(sp)
    1ce2:	f89ef4c3          	fmadd.s	fs1,ft9,fs1,ft11
    1ce6:	9701af87          	flw	ft11,-1680(gp) # 200001e0 <Q_2_0>
    1cea:	48c7f4c3          	fmadd.s	fs1,fa5,fa2,fs1
    1cee:	6622                	flw	fa2,8(sp)
    1cf0:	48c474c3          	fmadd.s	fs1,fs0,fa2,fs1
    1cf4:	f00c0653          	fmv.w.x	fa2,s8
    1cf8:	01f4f4d3          	fadd.s	fs1,fs1,ft11
    1cfc:	10ce7fd3          	fmul.s	ft11,ft8,fa2
    1d00:	7622                	flw	fa2,40(sp)
    1d02:	9291a827          	fsw	fs1,-1744(gp) # 200001a0 <P_pred_2_0>
    1d06:	f898ffc3          	fmadd.s	ft11,fa7,fs1,ft11
    1d0a:	f8c77fc3          	fmadd.s	ft11,fa4,fa2,ft11
    1d0e:	6632                	flw	fa2,12(sp)
    1d10:	6522                	flw	fa0,8(sp)
    1d12:	f8a67643          	fmadd.s	fa2,fa2,fa0,ft11
    1d16:	9741af87          	flw	ft11,-1676(gp) # 200001e4 <Q_2_1>
    1d1a:	01f67fd3          	fadd.s	ft11,fa2,ft11
    1d1e:	f0060653          	fmv.w.x	fa2,a2
    1d22:	11f67653          	fmul.s	fa2,fa2,ft11
    1d26:	93f1aa27          	fsw	ft11,-1740(gp) # 200001a4 <P_pred_2_1>
    1d2a:	e00605d3          	fmv.x.w	a1,fa2
    1d2e:	6642                	flw	fa2,16(sp)
    1d30:	f0058553          	fmv.w.x	fa0,a1
    1d34:	9781a583          	lw	a1,-1672(gp) # 200001e8 <Q_2_2>
    1d38:	50967643          	fmadd.s	fa2,fa2,fs1,fa0
    1d3c:	7522                	flw	fa0,40(sp)
    1d3e:	60a6f643          	fmadd.s	fa2,fa3,fa0,fa2
    1d42:	6522                	flw	fa0,8(sp)
    1d44:	60ad7643          	fmadd.s	fa2,fs10,fa0,fa2
    1d48:	f0058553          	fmv.w.x	fa0,a1
    1d4c:	00a67653          	fadd.s	fa2,fa2,fa0
    1d50:	11fcf553          	fmul.s	fa0,fs9,ft11
    1d54:	92c1ac27          	fsw	fa2,-1736(gp) # 200001a8 <P_pred_2_2>
    1d58:	50987543          	fmadd.s	fa0,fa6,fs1,fa0
    1d5c:	50c3f543          	fmadd.s	fa0,ft7,fa2,fa0
    1d60:	e00505d3          	fmv.x.w	a1,fa0
    1d64:	6522                	flw	fa0,8(sp)
    1d66:	f0058dd3          	fmv.w.x	fs11,a1
    1d6a:	97c1a583          	lw	a1,-1668(gp) # 200001ec <Q_2_3>
    1d6e:	d8a5f543          	fmadd.s	fa0,fa1,fa0,fs11
    1d72:	f0058dd3          	fmv.w.x	fs11,a1
    1d76:	01b57553          	fadd.s	fa0,fa0,fs11
    1d7a:	92a1ae27          	fsw	fa0,-1732(gp) # 200001ac <P_pred_2_3>
    1d7e:	e42a                	fsw	fa0,8(sp)
    1d80:	6516                	flw	fa0,68(sp)
    1d82:	10af7f53          	fmul.s	ft10,ft10,fa0
    1d86:	8e01a507          	flw	fa0,-1824(gp) # 20000150 <P0_1_0>
    1d8a:	8e018d93          	addi	s11,gp,-1824 # 20000150 <P0_1_0>
    1d8e:	10acf553          	fmul.s	fa0,fs9,fa0
    1d92:	e00505d3          	fmv.x.w	a1,fa0
    1d96:	8d01a507          	flw	fa0,-1840(gp) # 20000140 <P0_0_0>
    1d9a:	8d018d13          	addi	s10,gp,-1840 # 20000140 <P0_0_0>
    1d9e:	f0058dd3          	fmv.w.x	fs11,a1
    1da2:	d8a87543          	fmadd.s	fa0,fa6,fa0,fs11
    1da6:	e00505d3          	fmv.x.w	a1,fa0
    1daa:	8f01a507          	flw	fa0,-1808(gp) # 20000160 <P0_2_0>
    1dae:	8f018693          	addi	a3,gp,-1808 # 20000160 <P0_2_0>
    1db2:	f0058dd3          	fmv.w.x	fs11,a1
    1db6:	d8a3f543          	fmadd.s	fa0,ft7,fa0,fs11
    1dba:	e00505d3          	fmv.x.w	a1,fa0
    1dbe:	9001a507          	flw	fa0,-1792(gp) # 20000170 <P0_3_0>
    1dc2:	90018893          	addi	a7,gp,-1792 # 20000170 <P0_3_0>
    1dc6:	f0058dd3          	fmv.w.x	fs11,a1
    1dca:	d8a5f543          	fmadd.s	fa0,fa1,fa0,fs11
    1dce:	f0aeff43          	fmadd.s	ft10,ft9,fa0,ft10
    1dd2:	7532                	flw	fa0,44(sp)
    1dd4:	10c07ed3          	fmul.s	ft9,ft0,fa2
    1dd8:	f0a7ff43          	fmadd.s	ft10,fa5,fa0,ft10
    1ddc:	7792                	flw	fa5,36(sp)
    1dde:	f0f47443          	fmadd.s	fs0,fs0,fa5,ft10
    1de2:	9801a787          	flw	fa5,-1664(gp) # 200001f0 <Q_3_0>
    1de6:	00f47453          	fadd.s	fs0,fs0,fa5
    1dea:	6796                	flw	fa5,68(sp)
    1dec:	10fe7dd3          	fmul.s	fs11,ft8,fa5
    1df0:	67b2                	flw	fa5,12(sp)
    1df2:	9481a027          	fsw	fs0,-1728(gp) # 200001b0 <P_pred_3_0>
    1df6:	d888fdc3          	fmadd.s	fs11,fa7,fs0,fs11
    1dfa:	9841a887          	flw	fa7,-1660(gp) # 200001f4 <Q_3_1>
    1dfe:	d8a77743          	fmadd.s	fa4,fa4,fa0,fs11
    1e02:	7512                	flw	fa0,36(sp)
    1e04:	70a7f743          	fmadd.s	fa4,fa5,fa0,fa4
    1e08:	f00607d3          	fmv.w.x	fa5,a2
    1e0c:	6542                	flw	fa0,16(sp)
    1e0e:	01177753          	fadd.s	fa4,fa4,fa7
    1e12:	116278d3          	fmul.s	fa7,ft4,fs6
    1e16:	10e7f7d3          	fmul.s	fa5,fa5,fa4
    1e1a:	94e1a227          	fsw	fa4,-1724(gp) # 200001b4 <P_pred_3_1>
    1e1e:	788577c3          	fmadd.s	fa5,fa0,fs0,fa5
    1e22:	7532                	flw	fa0,44(sp)
    1e24:	78a6f7c3          	fmadd.s	fa5,fa3,fa0,fa5
    1e28:	7692                	flw	fa3,36(sp)
    1e2a:	78dd7d43          	fmadd.s	fs10,fs10,fa3,fa5
    1e2e:	10ecf7d3          	fmul.s	fa5,fs9,fa4
    1e32:	9881a687          	flw	fa3,-1656(gp) # 200001f8 <Q_3_2>
    1e36:	00dd7d53          	fadd.s	fs10,fs10,fa3
    1e3a:	78887843          	fmadd.s	fa6,fa6,fs0,fa5
    1e3e:	7792                	flw	fa5,36(sp)
    1e40:	95a1a427          	fsw	fs10,-1720(gp) # 200001b8 <P_pred_3_2>
    1e44:	81a3f843          	fmadd.s	fa6,ft7,fs10,fa6
    1e48:	80f5fcc3          	fmadd.s	fs9,fa1,fa5,fa6
    1e4c:	117177d3          	fmul.s	fa5,ft2,fs7
    1e50:	98c1a587          	flw	fa1,-1652(gp) # 200001fc <Q_3_3>
    1e54:	6502                	flw	fa0,0(sp)
    1e56:	66a2                	flw	fa3,8(sp)
    1e58:	00bcfcd3          	fadd.s	fs9,fs9,fa1
    1e5c:	7940fdc3          	fmadd.s	fs11,ft1,fs4,fa5
    1e60:	1160f5d3          	fmul.s	fa1,ft1,fs6
    1e64:	10c37853          	fmul.s	fa6,ft6,fa2
    1e68:	11957553          	fmul.s	fa0,fa0,fs9
    1e6c:	d9f37dc3          	fmadd.s	fs11,ft6,ft11,fs11
    1e70:	1192f3d3          	fmul.s	ft7,ft5,fs9
    1e74:	9591a627          	fsw	fs9,-1716(gp) # 200001bc <P_pred_3_3>
    1e78:	e62a                	fsw	fa0,12(sp)
    1e7a:	d8e2f7c3          	fmadd.s	fa5,ft5,fa4,fs11
    1e7e:	6512                	flw	fa0,4(sp)
    1e80:	11217dd3          	fmul.s	fs11,ft2,fs2
    1e84:	10a1ff53          	fmul.s	ft10,ft3,fa0
    1e88:	e0078c53          	fmv.x.w	s8,fa5
    1e8c:	6792                	flw	fa5,4(sp)
    1e8e:	6522                	flw	fa0,8(sp)
    1e90:	d980fdc3          	fmadd.s	fs11,ft1,fs8,fs11
    1e94:	10f177d3          	fmul.s	fa5,ft2,fa5
    1e98:	f1327f43          	fmadd.s	ft10,ft4,fs3,ft10
    1e9c:	010dfdd3          	fadd.s	fs11,fs11,fa6
    1ea0:	7930f7c3          	fmadd.s	fa5,ft1,fs3,fa5
    1ea4:	f0a07f43          	fmadd.s	ft10,ft0,fa0,ft10
    1ea8:	6532                	flw	fa0,12(sp)
    1eaa:	d9a2fdc3          	fmadd.s	fs11,ft5,fs10,fs11
    1eae:	78d377c3          	fmadd.s	fa5,ft6,fa3,fa5
    1eb2:	1171f6d3          	fmul.s	fa3,ft3,fs7
    1eb6:	00af7553          	fadd.s	fa0,ft10,fa0
    1eba:	59517f43          	fmadd.s	ft10,ft2,fs5,fa1
    1ebe:	0077f7d3          	fadd.s	fa5,fa5,ft7
    1ec2:	69427e43          	fmadd.s	ft8,ft4,fs4,fa3
    1ec6:	6682                	flw	fa3,0(sp)
    1ec8:	f0937f43          	fmadd.s	ft10,ft6,fs1,ft10
    1ecc:	e0050653          	fmv.x.w	a2,fa0
    1ed0:	f00c0553          	fmv.w.x	fa0,s8
    1ed4:	e1f07e43          	fmadd.s	ft8,ft0,ft11,ft8
    1ed8:	f082ff43          	fmadd.s	ft10,ft5,fs0,ft10
    1edc:	a4c18c13          	addi	s8,gp,-1460 # 200002bc <temp_1_2>
    1ee0:	d662                	sw	s8,44(sp)
    1ee2:	e0e6f6c3          	fmadd.s	fa3,fa3,fa4,ft8
    1ee6:	1121fe53          	fmul.s	ft8,ft3,fs2
    1eea:	e00685d3          	fmv.x.w	a1,fa3
    1eee:	e1827e43          	fmadd.s	ft8,ft4,fs8,ft8
    1ef2:	6682                	flw	fa3,0(sp)
    1ef4:	01de7e53          	fadd.s	ft8,ft8,ft9
    1ef8:	e1a6f6c3          	fmadd.s	fa3,fa3,fs10,ft8
    1efc:	10a17e53          	fmul.s	ft8,ft2,fa0
    1f00:	e1e0ff43          	fmadd.s	ft10,ft1,ft10,ft8
    1f04:	9901ae07          	flw	ft8,-1648(gp) # 20000200 <R_0_0>
    1f08:	f1b37f43          	fmadd.s	ft10,ft6,fs11,ft10
    1f0c:	f0f2ff43          	fmadd.s	ft10,ft5,fa5,ft10
    1f10:	01cf7f53          	fadd.s	ft10,ft10,ft8
    1f14:	10a1fe53          	fmul.s	ft8,ft3,fa0
    1f18:	6502                	flw	fa0,0(sp)
    1f1a:	01ef2027          	fsw	ft10,0(t5)
    1f1e:	e1e27e43          	fmadd.s	ft8,ft4,ft10,ft8
    1f22:	e1b07dc3          	fmadd.s	fs11,ft0,fs11,ft8
    1f26:	9941ae07          	flw	ft8,-1644(gp) # 20000204 <R_0_1>
    1f2a:	d8f57dc3          	fmadd.s	fs11,fa0,fa5,fs11
    1f2e:	f00587d3          	fmv.w.x	fa5,a1
    1f32:	01cdfdd3          	fadd.s	fs11,fs11,ft8
    1f36:	10f17e53          	fmul.s	ft8,ft2,fa5
    1f3a:	8951f7c3          	fmadd.s	fa5,ft3,fs5,fa7
    1f3e:	01bea027          	fsw	fs11,0(t4)
    1f42:	789077c3          	fmadd.s	fa5,ft0,fs1,fa5
    1f46:	788577c3          	fmadd.s	fa5,fa0,fs0,fa5
    1f4a:	f0060553          	fmv.w.x	fa0,a2
    1f4e:	e0f0f7c3          	fmadd.s	fa5,ft1,fa5,ft8
    1f52:	9981ae07          	flw	ft8,-1640(gp) # 20000208 <R_1_0>
    1f56:	78d377c3          	fmadd.s	fa5,ft6,fa3,fa5
    1f5a:	78a2f7c3          	fmadd.s	fa5,ft5,fa0,fa5
    1f5e:	6502                	flw	fa0,0(sp)
    1f60:	01c7fe53          	fadd.s	ft8,fa5,ft8
    1f64:	f00587d3          	fmv.w.x	fa5,a1
    1f68:	10f1f7d3          	fmul.s	fa5,ft3,fa5
    1f6c:	01ce2027          	fsw	ft8,0(t3)
    1f70:	79c277c3          	fmadd.s	fa5,ft4,ft8,fa5
    1f74:	78d076c3          	fmadd.s	fa3,ft0,fa3,fa5
    1f78:	f00607d3          	fmv.w.x	fa5,a2
    1f7c:	68f576c3          	fmadd.s	fa3,fa0,fa5,fa3
    1f80:	99c1a787          	flw	fa5,-1636(gp) # 2000020c <R_1_1>
    1f84:	a3e1a427          	fsw	ft10,-1496(gp) # 20000298 <temp_0_0_t>
    1f88:	f0040553          	fmv.w.x	fa0,s0
    1f8c:	00f6f7d3          	fadd.s	fa5,fa3,fa5
    1f90:	11cdf6d3          	fmul.s	fa3,fs11,ft8
    1f94:	a5018413          	addi	s0,gp,-1456 # 200002c0 <temp_1_3>
    1f98:	a5418c13          	addi	s8,gp,-1452 # 200002c4 <temp_2_0>
    1f9c:	68ff76c7          	fmsub.s	fa3,ft10,fa5,fa3
    1fa0:	00f32027          	fsw	fa5,0(t1)
    1fa4:	a3b1a827          	fsw	fs11,-1488(gp) # 200002a0 <temp_0_1_t>
    1fa8:	a3418e13          	addi	t3,gp,-1484 # 200002a4 <temp_0_2>
    1fac:	a5c1a027          	fsw	ft8,-1472(gp) # 200002b0 <temp_1_0_t>
    1fb0:	c0e2                	sw	s8,64(sp)
    1fb2:	a5818c13          	addi	s8,gp,-1448 # 200002c8 <temp_2_1>
    1fb6:	a4f1a427          	fsw	fa5,-1464(gp) # 200002b8 <temp_1_1_t>
    1fba:	d272                	sw	t3,36(sp)
    1fbc:	a3818e13          	addi	t3,gp,-1480 # 200002a8 <temp_0_3>
    1fc0:	c2e2                	sw	s8,68(sp)
    1fc2:	a6418c93          	addi	s9,gp,-1436 # 200002d4 <temp_3_0>
    1fc6:	a5c18c13          	addi	s8,gp,-1444 # 200002cc <temp_2_2>
    1fca:	a2d1a027          	fsw	fa3,-1504(gp) # 20000290 <temp>
    1fce:	d472                	sw	t3,40(sp)
    1fd0:	c4e2                	sw	s8,72(sp)
    1fd2:	a6018c13          	addi	s8,gp,-1440 # 200002d0 <temp_2_3>
    1fd6:	a6818593          	addi	a1,gp,-1432 # 200002d8 <temp_3_1>
    1fda:	c6ae                	sw	a1,76(sp)
    1fdc:	a0a6a7d3          	feq.s	a5,fa3,fa0
    1fe0:	a6c18593          	addi	a1,gp,-1428 # 200002dc <temp_3_2>
    1fe4:	a7018613          	addi	a2,gp,-1424 # 200002e0 <temp_3_3>
    1fe8:	ccb6                	sw	a3,88(sp)
    1fea:	8d418693          	addi	a3,gp,-1836 # 20000144 <P0_0_1>
    1fee:	a3c18e13          	addi	t3,gp,-1476 # 200002ac <temp_1_0>
    1ff2:	ceb6                	sw	a3,92(sp)
    1ff4:	c8ae                	sw	a1,80(sp)
    1ff6:	cab2                	sw	a2,84(sp)
    1ff8:	90418693          	addi	a3,gp,-1788 # 20000174 <P0_3_1>
    1ffc:	8f818813          	addi	a6,gp,-1800 # 20000168 <P0_2_2>
    2000:	a4418313          	addi	t1,gp,-1468 # 200002b4 <temp_1_1>
    2004:	8dc18b13          	addi	s6,gp,-1828 # 2000014c <P0_0_3>
    2008:	8fc18993          	addi	s3,gp,-1796 # 2000016c <P0_2_3>
    200c:	8ec18293          	addi	t0,gp,-1812 # 2000015c <P0_1_3>
    2010:	e78d                	bnez	a5,203a <Apt_Ekf_Update+0xb14>
    2012:	21bd9dd3          	fneg.s	fs11,fs11
    2016:	18d7f7d3          	fdiv.s	fa5,fa5,fa3
    201a:	18ddfdd3          	fdiv.s	fs11,fs11,fa3
    201e:	00ff2027          	fsw	fa5,0(t5)
    2022:	01bea027          	fsw	fs11,0(t4)
    2026:	21ce1dd3          	fneg.s	fs11,ft8
    202a:	18df7f53          	fdiv.s	ft10,ft10,fa3
    202e:	18ddfdd3          	fdiv.s	fs11,fs11,fa3
    2032:	01e32027          	fsw	ft10,0(t1)
    2036:	01be2027          	fsw	fs11,0(t3)
    203a:	8941f8c3          	fmadd.s	fa7,ft3,fs4,fa7
    203e:	6782                	flw	fa5,0(sp)
    2040:	6512                	flw	fa0,4(sp)
    2042:	594175c3          	fmadd.s	fa1,ft2,fs4,fa1
    2046:	000e2f07          	flw	ft10,0(t3)
    204a:	898078c3          	fmadd.s	fa7,ft0,fs8,fa7
    204e:	000ead87          	flw	fs11,0(t4)
    2052:	598375c3          	fmadd.s	fa1,ft6,fs8,fa1
    2056:	8937f6c3          	fmadd.s	fa3,fa5,fs3,fa7
    205a:	1171f7d3          	fmul.s	fa5,ft3,fs7
    205e:	6882                	flw	fa7,0(sp)
    2060:	5932f5c3          	fmadd.s	fa1,ft5,fs3,fa1
    2064:	795277c3          	fmadd.s	fa5,ft4,fs5,fa5
    2068:	792077c3          	fmadd.s	fa5,ft0,fs2,fa5
    206c:	78a8f7c3          	fmadd.s	fa5,fa7,fa0,fa5
    2070:	11f17553          	fmul.s	fa0,ft2,ft11
    2074:	e00785d3          	fmv.x.w	a1,fa5
    2078:	11f1f7d3          	fmul.s	fa5,ft3,ft11
    207c:	5090f543          	fmadd.s	fa0,ft1,fs1,fa0
    2080:	789277c3          	fmadd.s	fa5,ft4,fs1,fa5
    2084:	01057853          	fadd.s	fa6,fa0,fa6
    2088:	6522                	flw	fa0,8(sp)
    208a:	01d7fed3          	fadd.s	ft9,fa5,ft9
    208e:	67a2                	flw	fa5,8(sp)
    2090:	80a2f843          	fmadd.s	fa6,ft5,fa0,fa6
    2094:	e8f8f7c3          	fmadd.s	fa5,fa7,fa5,ft9
    2098:	10e1f8d3          	fmul.s	fa7,ft3,fa4
    209c:	e0078653          	fmv.x.w	a2,fa5
    20a0:	888278c3          	fmadd.s	fa7,ft4,fs0,fa7
    20a4:	67b2                	flw	fa5,12(sp)
    20a6:	f0060553          	fmv.w.x	fa0,a2
    20aa:	89a078c3          	fmadd.s	fa7,ft0,fs10,fa7
    20ae:	11e57553          	fmul.s	fa0,fa0,ft10
    20b2:	00f8f7d3          	fadd.s	fa5,fa7,fa5
    20b6:	11e6f8d3          	fmul.s	fa7,fa3,ft10
    20ba:	e0078553          	fmv.x.w	a0,fa5
    20be:	000f2787          	flw	fa5,0(t5)
    20c2:	88f5f5c3          	fmadd.s	fa1,fa1,fa5,fa7
    20c6:	00032887          	flw	fa7,0(t1)
    20ca:	50f87843          	fmadd.s	fa6,fa6,fa5,fa0
    20ce:	f0060553          	fmv.w.x	fa0,a2
    20d2:	1116fed3          	fmul.s	ft9,fa3,fa7
    20d6:	117176d3          	fmul.s	fa3,ft2,fs7
    20da:	11157553          	fmul.s	fa0,fa0,fa7
    20de:	8ab1a627          	fsw	fa1,-1876(gp) # 2000011c <K_0_0>
    20e2:	e9b5fec3          	fmadd.s	ft9,fa1,fs11,ft9
    20e6:	6950fe43          	fmadd.s	ft8,ft1,fs5,fa3
    20ea:	6692                	flw	fa3,4(sp)
    20ec:	510df543          	fmadd.s	fa0,fs11,fa6,fa0
    20f0:	8bd1a827          	fsw	ft9,-1872(gp) # 20000120 <K_0_1>
    20f4:	e1237e43          	fmadd.s	ft8,ft6,fs2,ft8
    20f8:	e62a                	fsw	fa0,12(sp)
    20fa:	e0d2fe43          	fmadd.s	ft8,ft5,fa3,ft8
    20fe:	f00586d3          	fmv.w.x	fa3,a1
    2102:	11e6f6d3          	fmul.s	fa3,fa3,ft10
    2106:	68fe7e43          	fmadd.s	ft8,ft8,fa5,fa3
    210a:	f00586d3          	fmv.w.x	fa3,a1
    210e:	1116f6d3          	fmul.s	fa3,fa3,fa7
    2112:	8bc1aa27          	fsw	ft8,-1868(gp) # 20000124 <K_1_0>
    2116:	69cdf6c3          	fmadd.s	fa3,fs11,ft8,fa3
    211a:	8ad1ac27          	fsw	fa3,-1864(gp) # 20000128 <K_1_1>
    211e:	8b01ae27          	fsw	fa6,-1860(gp) # 2000012c <K_2_0>
    2122:	8ca1a027          	fsw	fa0,-1856(gp) # 20000130 <K_2_1>
    2126:	10e17553          	fmul.s	fa0,ft2,fa4
    212a:	5080f543          	fmadd.s	fa0,ft1,fs0,fa0
    212e:	51a37543          	fmadd.s	fa0,ft6,fs10,fa0
    2132:	007573d3          	fadd.s	ft7,fa0,ft7
    2136:	f0050553          	fmv.w.x	fa0,a0
    213a:	11e57f53          	fmul.s	ft10,fa0,ft10
    213e:	111578d3          	fmul.s	fa7,fa0,fa7
    2142:	7562                	flw	fa0,56(sp)
    2144:	f0f3f7c3          	fmadd.s	fa5,ft7,fa5,ft10
    2148:	73c2                	flw	ft7,48(sp)
    214a:	087573d3          	fsub.s	ft7,fa0,ft7
    214e:	88fdfdc3          	fmadd.s	fs11,fs11,fa5,fa7
    2152:	7572                	flw	fa0,60(sp)
    2154:	78d2                	flw	fa7,52(sp)
    2156:	8cf1a227          	fsw	fa5,-1852(gp) # 20000134 <K_3_0>
    215a:	091578d3          	fsub.s	fa7,fa0,fa7
    215e:	6552                	flw	fa0,20(sp)
    2160:	8db1a427          	fsw	fs11,-1848(gp) # 20000138 <K_3_1>
    2164:	5075ff43          	fmadd.s	ft10,fa1,ft7,fa0
    2168:	f11ef543          	fmadd.s	fa0,ft9,fa7,ft10
    216c:	a6a1aa27          	fsw	fa0,-1420(gp) # 200002e4 <tempa_0_0>
    2170:	ea2a                	fsw	fa0,20(sp)
    2172:	6562                	flw	fa0,24(sp)
    2174:	507e7f43          	fmadd.s	ft10,ft8,ft7,fa0
    2178:	6572                	flw	fa0,28(sp)
    217a:	f116ff43          	fmadd.s	ft10,fa3,fa7,ft10
    217e:	a7e1ac27          	fsw	ft10,-1416(gp) # 200002e8 <tempa_1_0>
    2182:	50787f43          	fmadd.s	ft10,fa6,ft7,fa0
    2186:	6532                	flw	fa0,12(sp)
    2188:	a7818593          	addi	a1,gp,-1416 # 200002e8 <tempa_1_0>
    218c:	f1157f43          	fmadd.s	ft10,fa0,fa7,ft10
    2190:	a7e1ae27          	fsw	ft10,-1412(gp) # 200002ec <tempa_2_0>
    2194:	7502                	flw	fa0,32(sp)
    2196:	5512                	lw	a0,36(sp)
    2198:	a7c18613          	addi	a2,gp,-1412 # 200002ec <tempa_2_0>
    219c:	5077f3c3          	fmadd.s	ft7,fa5,ft7,fa0
    21a0:	391df543          	fmadd.s	fa0,fs11,fa7,ft7
    21a4:	11d1f8d3          	fmul.s	fa7,ft3,ft9
    21a8:	11d273d3          	fmul.s	ft7,ft4,ft9
    21ac:	a8a1a027          	fsw	fa0,-1408(gp) # 200002f0 <tempa_3_0>
    21b0:	e82a                	fsw	fa0,16(sp)
    21b2:	38b0f3c3          	fmadd.s	ft7,ft1,fa1,ft7
    21b6:	88b17543          	fmadd.s	fa0,ft2,fa1,fa7
    21ba:	11d078d3          	fmul.s	fa7,ft0,ft9
    21be:	a8018793          	addi	a5,gp,-1408 # 200002f0 <tempa_3_0>
    21c2:	007f2027          	fsw	ft7,0(t5)
    21c6:	00aea027          	fsw	fa0,0(t4)
    21ca:	e0050f53          	fmv.x.w	t5,fa0
    21ce:	88b37543          	fmadd.s	fa0,ft6,fa1,fa7
    21d2:	10d1f8d3          	fmul.s	fa7,ft3,fa3
    21d6:	e108                	fsw	fa0,0(a0)
    21d8:	e0050ed3          	fmv.x.w	t4,fa0
    21dc:	6502                	flw	fa0,0(sp)
    21de:	5522                	lw	a0,40(sp)
    21e0:	11d57ed3          	fmul.s	ft9,fa0,ft9
    21e4:	89c17543          	fmadd.s	fa0,ft2,ft8,fa7
    21e8:	10d078d3          	fmul.s	fa7,ft0,fa3
    21ec:	e8b2fec3          	fmadd.s	ft9,ft5,fa1,ft9
    21f0:	e0050fd3          	fmv.x.w	t6,fa0
    21f4:	00a32027          	fsw	fa0,0(t1)
    21f8:	89c37543          	fmadd.s	fa0,ft6,ft8,fa7
    21fc:	10d275d3          	fmul.s	fa1,ft4,fa3
    2200:	01d52027          	fsw	ft9,0(a0)
    2204:	5532                	lw	a0,44(sp)
    2206:	e0050353          	fmv.x.w	t1,fa0
    220a:	e108                	fsw	fa0,0(a0)
    220c:	6502                	flw	fa0,0(sp)
    220e:	59c0f5c3          	fmadd.s	fa1,ft1,ft8,fa1
    2212:	4506                	lw	a0,64(sp)
    2214:	10d576d3          	fmul.s	fa3,fa0,fa3
    2218:	6532                	flw	fa0,12(sp)
    221a:	00be2027          	fsw	fa1,0(t3)
    221e:	10a1f8d3          	fmul.s	fa7,ft3,fa0
    2222:	69c2f6c3          	fmadd.s	fa3,ft5,ft8,fa3
    2226:	10a07f53          	fmul.s	ft10,ft0,fa0
    222a:	10a27e53          	fmul.s	ft8,ft4,fa0
    222e:	11b27253          	fmul.s	ft4,ft4,fs11
    2232:	890178c3          	fmadd.s	fa7,ft2,fa6,fa7
    2236:	e0068e53          	fmv.x.w	t3,fa3
    223a:	e014                	fsw	fa3,0(s0)
    223c:	6682                	flw	fa3,0(sp)
    223e:	e100fe43          	fmadd.s	ft8,ft1,fa6,ft8
    2242:	f1037f43          	fmadd.s	ft10,ft6,fa6,ft10
    2246:	10a6f553          	fmul.s	fa0,fa3,fa0
    224a:	20f0f243          	fmadd.s	ft4,ft1,fa5,ft4
    224e:	f00e80d3          	fmv.w.x	ft1,t4
    2252:	11b1f1d3          	fmul.s	ft3,ft3,fs11
    2256:	01c52027          	fsw	ft8,0(a0)
    225a:	5102f843          	fmadd.s	fa6,ft5,fa6,fa0
    225e:	f00f0553          	fmv.w.x	fa0,t5
    2262:	4516                	lw	a0,68(sp)
    2264:	11b07053          	fmul.s	ft0,ft0,fs11
    2268:	10aaf553          	fmul.s	fa0,fs5,fa0
    226c:	01152027          	fsw	fa7,0(a0)
    2270:	4526                	lw	a0,72(sp)
    2272:	18f171c3          	fmadd.s	ft3,ft2,fa5,ft3
    2276:	11b6fdd3          	fmul.s	fs11,fa3,fs11
    227a:	507b7543          	fmadd.s	fa0,fs6,ft7,fa0
    227e:	01e52027          	fsw	ft10,0(a0)
    2282:	4536                	lw	a0,76(sp)
    2284:	00f37043          	fmadd.s	ft0,ft6,fa5,ft0
    2288:	d8f2f7c3          	fmadd.s	fa5,ft5,fa5,fs11
    228c:	5014f543          	fmadd.s	fa0,fs1,ft1,fa0
    2290:	00352027          	fsw	ft3,0(a0)
    2294:	4546                	lw	a0,80(sp)
    2296:	010c2027          	fsw	fa6,0(s8)
    229a:	004ca027          	fsw	ft4,0(s9)
    229e:	51d47543          	fmadd.s	fa0,fs0,ft9,fa0
    22a2:	00052027          	fsw	ft0,0(a0)
    22a6:	4556                	lw	a0,84(sp)
    22a8:	f00e06d3          	fmv.w.x	fa3,t3
    22ac:	08ab7553          	fsub.s	fa0,fs6,fa0
    22b0:	e11c                	fsw	fa5,0(a0)
    22b2:	00ad2027          	fsw	fa0,0(s10)
    22b6:	f00f0553          	fmv.w.x	fa0,t5
    22ba:	4576                	lw	a0,92(sp)
    22bc:	10abf553          	fmul.s	fa0,fs7,fa0
    22c0:	507a7543          	fmadd.s	fa0,fs4,ft7,fa0
    22c4:	501ff543          	fmadd.s	fa0,ft11,ft1,fa0
    22c8:	51d77543          	fmadd.s	fa0,fa4,ft9,fa0
    22cc:	08aa7553          	fsub.s	fa0,fs4,fa0
    22d0:	e108                	fsw	fa0,0(a0)
    22d2:	f00f0553          	fmv.w.x	fa0,t5
    22d6:	4566                	lw	a0,88(sp)
    22d8:	10a97553          	fmul.s	fa0,fs2,fa0
    22dc:	507c7543          	fmadd.s	fa0,fs8,ft7,fa0
    22e0:	50167543          	fmadd.s	fa0,fa2,ft1,fa0
    22e4:	f00f00d3          	fmv.w.x	ft1,t5
    22e8:	51dd7543          	fmadd.s	fa0,fs10,ft9,fa0
    22ec:	08ac7553          	fsub.s	fa0,fs8,fa0
    22f0:	00aa2027          	fsw	fa0,0(s4)
    22f4:	6512                	flw	fa0,4(sp)
    22f6:	10157553          	fmul.s	fa0,fa0,ft1
    22fa:	f00e80d3          	fmv.w.x	ft1,t4
    22fe:	5079f3c3          	fmadd.s	ft7,fs3,ft7,fa0
    2302:	6522                	flw	fa0,8(sp)
    2304:	381573c3          	fmadd.s	ft7,fa0,ft1,ft7
    2308:	f00f8553          	fmv.w.x	fa0,t6
    230c:	f00300d3          	fmv.w.x	ft1,t1
    2310:	10aaf553          	fmul.s	fa0,fs5,fa0
    2314:	39dcfec3          	fmadd.s	ft9,fs9,ft9,ft7
    2318:	50bb7543          	fmadd.s	fa0,fs6,fa1,fa0
    231c:	09d9fed3          	fsub.s	ft9,fs3,ft9
    2320:	5014f543          	fmadd.s	fa0,fs1,ft1,fa0
    2324:	01db2027          	fsw	ft9,0(s6)
    2328:	50d47543          	fmadd.s	fa0,fs0,fa3,fa0
    232c:	08aaf553          	fsub.s	fa0,fs5,fa0
    2330:	00ada027          	fsw	fa0,0(s11)
    2334:	f00f8553          	fmv.w.x	fa0,t6
    2338:	10abf553          	fmul.s	fa0,fs7,fa0
    233c:	50ba7543          	fmadd.s	fa0,fs4,fa1,fa0
    2340:	501ff543          	fmadd.s	fa0,ft11,ft1,fa0
    2344:	50d77543          	fmadd.s	fa0,fa4,fa3,fa0
    2348:	08abf553          	fsub.s	fa0,fs7,fa0
    234c:	e088                	fsw	fa0,0(s1)
    234e:	f00f8553          	fmv.w.x	fa0,t6
    2352:	10a97553          	fmul.s	fa0,fs2,fa0
    2356:	50bc7543          	fmadd.s	fa0,fs8,fa1,fa0
    235a:	50167543          	fmadd.s	fa0,fa2,ft1,fa0
    235e:	f00f80d3          	fmv.w.x	ft1,t6
    2362:	50dd7543          	fmadd.s	fa0,fs10,fa3,fa0
    2366:	08a97553          	fsub.s	fa0,fs2,fa0
    236a:	00aaa027          	fsw	fa0,0(s5)
    236e:	6512                	flw	fa0,4(sp)
    2370:	10157553          	fmul.s	fa0,fa0,ft1
    2374:	f00300d3          	fmv.w.x	ft1,t1
    2378:	50b9f5c3          	fmadd.s	fa1,fs3,fa1,fa0
    237c:	6522                	flw	fa0,8(sp)
    237e:	581575c3          	fmadd.s	fa1,fa0,ft1,fa1
    2382:	58dcf6c3          	fmadd.s	fa3,fs9,fa3,fa1
    2386:	6592                	flw	fa1,4(sp)
    2388:	08d5f6d3          	fsub.s	fa3,fa1,fa3
    238c:	00d2a027          	fsw	fa3,0(t0)
    2390:	111af6d3          	fmul.s	fa3,fs5,fa7
    2394:	103afad3          	fmul.s	fs5,fs5,ft3
    2398:	69cb76c3          	fmadd.s	fa3,fs6,ft8,fa3
    239c:	a84b7ac3          	fmadd.s	fs5,fs6,ft4,fs5
    23a0:	69e4f6c3          	fmadd.s	fa3,fs1,ft10,fa3
    23a4:	690476c3          	fmadd.s	fa3,fs0,fa6,fa3
    23a8:	08d4f6d3          	fsub.s	fa3,fs1,fa3
    23ac:	a804f4c3          	fmadd.s	fs1,fs1,ft0,fs5
    23b0:	e114                	fsw	fa3,0(a0)
    23b2:	111bf6d3          	fmul.s	fa3,fs7,fa7
    23b6:	103bfbd3          	fmul.s	fs7,fs7,ft3
    23ba:	48f474c3          	fmadd.s	fs1,fs0,fa5,fs1
    23be:	69ca76c3          	fmadd.s	fa3,fs4,ft8,fa3
    23c2:	b84a7a43          	fmadd.s	fs4,fs4,ft4,fs7
    23c6:	08947453          	fsub.s	fs0,fs0,fs1
    23ca:	69eff6c3          	fmadd.s	fa3,ft11,ft10,fa3
    23ce:	a00ffa43          	fmadd.s	fs4,ft11,ft0,fs4
    23d2:	0088a027          	fsw	fs0,0(a7)
    23d6:	690776c3          	fmadd.s	fa3,fa4,fa6,fa3
    23da:	a0f77a43          	fmadd.s	fs4,fa4,fa5,fs4
    23de:	08dff6d3          	fsub.s	fa3,ft11,fa3
    23e2:	09477753          	fsub.s	fa4,fa4,fs4
    23e6:	00d92027          	fsw	fa3,0(s2)
    23ea:	111976d3          	fmul.s	fa3,fs2,fa7
    23ee:	10397953          	fmul.s	fs2,fs2,ft3
    23f2:	1035f1d3          	fmul.s	ft3,fa1,ft3
    23f6:	e298                	fsw	fa4,0(a3)
    23f8:	6742                	flw	fa4,16(sp)
    23fa:	69cc76c3          	fmadd.s	fa3,fs8,ft8,fa3
    23fe:	904c7c43          	fmadd.s	fs8,fs8,ft4,fs2
    2402:	1849f243          	fmadd.s	ft4,fs3,ft4,ft3
    2406:	69e676c3          	fmadd.s	fa3,fa2,ft10,fa3
    240a:	690d76c3          	fmadd.s	fa3,fs10,fa6,fa3
    240e:	08d676d3          	fsub.s	fa3,fa2,fa3
    2412:	c0067643          	fmadd.s	fa2,fa2,ft0,fs8
    2416:	20057043          	fmadd.s	ft0,fa0,ft0,ft4
    241a:	00d82027          	fsw	fa3,0(a6)
    241e:	1115f6d3          	fmul.s	fa3,fa1,fa7
    2422:	60fd7643          	fmadd.s	fa2,fs10,fa5,fa2
    2426:	00fcf7c3          	fmadd.s	fa5,fs9,fa5,ft0
    242a:	69c9fe43          	fmadd.s	ft8,fs3,ft8,fa3
    242e:	08cd7d53          	fsub.s	fs10,fs10,fa2
    2432:	e1e57e43          	fmadd.s	ft8,fa0,ft10,ft8
    2436:	01a3a027          	fsw	fs10,0(t2)
    243a:	e10cf843          	fmadd.s	fa6,fs9,fa6,ft8
    243e:	08fcfcd3          	fsub.s	fs9,fs9,fa5
    2442:	09057853          	fsub.s	fa6,fa0,fa6
    2446:	01972027          	fsw	fs9,0(a4)
    244a:	00006737          	lui	a4,0x6
    244e:	aa072787          	flw	fa5,-1376(a4) # 5aa0 <_read+0x72>
    2452:	0109a027          	fsw	fa6,0(s3)
    2456:	a0e79753          	flt.s	a4,fa5,fa4
    245a:	c709                	beqz	a4,2464 <Apt_Ekf_Update+0xf3e>
    245c:	08f778d3          	fsub.s	fa7,fa4,fa5
    2460:	0117a027          	fsw	fa7,0(a5)
    2464:	67d2                	flw	fa5,20(sp)
    2466:	643a                	flw	fs0,140(sp)
    2468:	64aa                	flw	fs1,136(sp)
    246a:	00fba027          	fsw	fa5,0(s7)
    246e:	619c                	flw	fa5,0(a1)
    2470:	691a                	flw	fs2,132(sp)
    2472:	698a                	flw	fs3,128(sp)
    2474:	00fba227          	fsw	fa5,4(s7)
    2478:	621c                	flw	fa5,0(a2)
    247a:	7a76                	flw	fs4,124(sp)
    247c:	7ae6                	flw	fs5,120(sp)
    247e:	00fba427          	fsw	fa5,8(s7)
    2482:	639c                	flw	fa5,0(a5)
    2484:	7b56                	flw	fs6,116(sp)
    2486:	7bc6                	flw	fs7,112(sp)
    2488:	7c36                	flw	fs8,108(sp)
    248a:	7ca6                	flw	fs9,104(sp)
    248c:	7d16                	flw	fs10,100(sp)
    248e:	7d86                	flw	fs11,96(sp)
    2490:	00fba627          	fsw	fa5,12(s7)
    2494:	6149                	addi	sp,sp,144
    2496:	da7fd06f          	j	23c <__riscv_restore_12>

0000249a <fast_sin>:
    249a:	000067b7          	lui	a5,0x6
    249e:	aa07a787          	flw	fa5,-1376(a5) # 5aa0 <_read+0x72>
    24a2:	f0000753          	fmv.w.x	fa4,zero
    24a6:	20f786d3          	fmv.s	fa3,fa5
    24aa:	a0a797d3          	flt.s	a5,fa5,fa0
    24ae:	c799                	beqz	a5,24bc <fast_sin+0x22>
    24b0:	a0a717d3          	flt.s	a5,fa4,fa0
    24b4:	c781                	beqz	a5,24bc <fast_sin+0x22>
    24b6:	08f57553          	fsub.s	fa0,fa0,fa5
    24ba:	bfc5                	j	24aa <fast_sin+0x10>
    24bc:	a0e517d3          	flt.s	a5,fa0,fa4
    24c0:	c781                	beqz	a5,24c8 <fast_sin+0x2e>
    24c2:	00d57553          	fadd.s	fa0,fa0,fa3
    24c6:	b7d5                	j	24aa <fast_sin+0x10>
    24c8:	000067b7          	lui	a5,0x6
    24cc:	aa47a787          	flw	fa5,-1372(a5) # 5aa4 <_read+0x76>
    24d0:	6719                	lui	a4,0x6
    24d2:	aa870713          	addi	a4,a4,-1368 # 5aa8 <sin_tab>
    24d6:	10f57553          	fmul.s	fa0,fa0,fa5
    24da:	c00517d3          	fcvt.w.s	a5,fa0,rtz
    24de:	078a                	slli	a5,a5,0x2
    24e0:	97ba                	add	a5,a5,a4
    24e2:	6388                	flw	fa0,0(a5)
    24e4:	8082                	ret

000024e6 <foc_init>:
    24e6:	00006737          	lui	a4,0x6
    24ea:	2e472787          	flw	fa5,740(a4) # 62e4 <sin_tab+0x83c>
    24ee:	af418793          	addi	a5,gp,-1292 # 20000364 <rtU>
    24f2:	00006737          	lui	a4,0x6
    24f6:	ebdc                	fsw	fa5,20(a5)
    24f8:	2e872787          	flw	fa5,744(a4) # 62e8 <sin_tab+0x840>
    24fc:	00006737          	lui	a4,0x6
    2500:	0007a023          	sw	zero,0(a5)
    2504:	eb9c                	fsw	fa5,16(a5)
    2506:	a7472787          	flw	fa5,-1420(a4) # 5a74 <_read+0x46>
    250a:	0007a223          	sw	zero,4(a5)
    250e:	0007ae23          	sw	zero,28(a5)
    2512:	ef9c                	fsw	fa5,24(a5)
    2514:	8082                	ret

00002516 <PI_init>:
    2516:	00006737          	lui	a4,0x6
    251a:	2d472787          	flw	fa5,724(a4) # 62d4 <sin_tab+0x82c>
    251e:	adc18793          	addi	a5,gp,-1316 # 2000034c <iqPI>
    2522:	00006737          	lui	a4,0x6
    2526:	e39c                	fsw	fa5,0(a5)
    2528:	2d872787          	flw	fa5,728(a4) # 62d8 <sin_tab+0x830>
    252c:	00006737          	lui	a4,0x6
    2530:	2e872707          	flw	fa4,744(a4) # 62e8 <sin_tab+0x840>
    2534:	00006737          	lui	a4,0x6
    2538:	e3dc                	fsw	fa5,4(a5)
    253a:	2dc72787          	flw	fa5,732(a4) # 62dc <sin_tab+0x834>
    253e:	00006737          	lui	a4,0x6
    2542:	2e072687          	flw	fa3,736(a4) # 62e0 <sin_tab+0x838>
    2546:	e798                	fsw	fa4,8(a5)
    2548:	e7dc                	fsw	fa5,12(a5)
    254a:	ac418793          	addi	a5,gp,-1340 # 20000334 <idPI>
    254e:	00006737          	lui	a4,0x6
    2552:	e394                	fsw	fa3,0(a5)
    2554:	a8072687          	flw	fa3,-1408(a4) # 5a80 <_read+0x52>
    2558:	e798                	fsw	fa4,8(a5)
    255a:	e7dc                	fsw	fa5,12(a5)
    255c:	e3d4                	fsw	fa3,4(a5)
    255e:	8082                	ret

00002560 <All_foc_init>:
    2560:	cd1fd2ef          	jal	t0,230 <__riscv_save_0>
    2564:	3749                	jal	24e6 <foc_init>
    2566:	3f45                	jal	2516 <PI_init>
    2568:	e8dfe0ef          	jal	ra,13f4 <Apt_Ekf_Init>
    256c:	ce9fd06f          	j	254 <__riscv_restore_0>

00002570 <PI_control>:
    2570:	695c                	flw	fa5,20(a0)
    2572:	6158                	flw	fa4,4(a0)
    2574:	6114                	flw	fa3,0(a0)
    2576:	10e7f753          	fmul.s	fa4,fa5,fa4
    257a:	70a6f743          	fmadd.s	fa4,fa3,fa0,fa4
    257e:	00a7f553          	fadd.s	fa0,fa5,fa0
    2582:	655c                	flw	fa5,12(a0)
    2584:	e918                	fsw	fa4,16(a0)
    2586:	a0a787d3          	fle.s	a5,fa5,fa0
    258a:	e948                	fsw	fa0,20(a0)
    258c:	c399                	beqz	a5,2592 <PI_control+0x22>
    258e:	e95c                	fsw	fa5,20(a0)
    2590:	a031                	j	259c <PI_control+0x2c>
    2592:	20f797d3          	fneg.s	fa5,fa5
    2596:	a0f507d3          	fle.s	a5,fa0,fa5
    259a:	fbf5                	bnez	a5,258e <PI_control+0x1e>
    259c:	651c                	flw	fa5,8(a0)
    259e:	a0e787d3          	fle.s	a5,fa5,fa4
    25a2:	c399                	beqz	a5,25a8 <PI_control+0x38>
    25a4:	e91c                	fsw	fa5,16(a0)
    25a6:	a031                	j	25b2 <PI_control+0x42>
    25a8:	20f797d3          	fneg.s	fa5,fa5
    25ac:	a0f707d3          	fle.s	a5,fa4,fa5
    25b0:	fbf5                	bnez	a5,25a4 <PI_control+0x34>
    25b2:	8082                	ret

000025b4 <foc_step>:
    25b4:	c63fd2ef          	jal	t0,216 <__riscv_save_4>
    25b8:	81c1d783          	lhu	a5,-2020(gp) # 2000008c <Curbuf>
    25bc:	81c18713          	addi	a4,gp,-2020 # 2000008c <Curbuf>
    25c0:	1141                	addi	sp,sp,-16
    25c2:	80078793          	addi	a5,a5,-2048
    25c6:	d007f7d3          	fcvt.s.w	fa5,a5
    25ca:	000067b7          	lui	a5,0x6
    25ce:	2ec7a007          	flw	ft0,748(a5) # 62ec <sin_tab+0x844>
    25d2:	000067b7          	lui	a5,0x6
    25d6:	2f07a507          	flw	fa0,752(a5) # 62f0 <sin_tab+0x848>
    25da:	000067b7          	lui	a5,0x6
    25de:	2f47a587          	flw	fa1,756(a5) # 62f4 <sin_tab+0x84c>
    25e2:	000067b7          	lui	a5,0x6
    25e6:	2f87a607          	flw	fa2,760(a5) # 62f8 <sin_tab+0x850>
    25ea:	233e                	lhu	a5,2(a4)
    25ec:	1007f7d3          	fmul.s	fa5,fa5,ft0
    25f0:	80078793          	addi	a5,a5,-2048
    25f4:	d007f753          	fcvt.s.w	fa4,a5
    25f8:	000067b7          	lui	a5,0x6
    25fc:	10a7f7d3          	fmul.s	fa5,fa5,fa0
    2600:	10077753          	fmul.s	fa4,fa4,ft0
    2604:	b2418913          	addi	s2,gp,-1244 # 20000394 <rtY>
    2608:	e622                	fsw	fs0,12(sp)
    260a:	e426                	fsw	fs1,8(sp)
    260c:	18b7f7d3          	fdiv.s	fa5,fa5,fa1
    2610:	10a77753          	fmul.s	fa4,fa4,fa0
    2614:	e24a                	fsw	fs2,4(sp)
    2616:	00006a37          	lui	s4,0x6
    261a:	300a2407          	flw	fs0,768(s4) # 6300 <sin_tab+0x858>
    261e:	af418993          	addi	s3,gp,-1292 # 20000364 <rtU>
    2622:	0089a507          	flw	fa0,8(s3)
    2626:	b2418413          	addi	s0,gp,-1244 # 20000394 <rtY>
    262a:	af418493          	addi	s1,gp,-1292 # 20000364 <rtU>
    262e:	18b77753          	fdiv.s	fa4,fa4,fa1
    2632:	18c7f6d3          	fdiv.s	fa3,fa5,fa2
    2636:	18c777d3          	fdiv.s	fa5,fa4,fa2
    263a:	2fc7a707          	flw	fa4,764(a5) # 62fc <sin_tab+0x854>
    263e:	00d92c27          	fsw	fa3,24(s2)
    2642:	02d92027          	fsw	fa3,32(s2)
    2646:	00f92e27          	fsw	fa5,28(s2)
    264a:	68e7f7c3          	fmadd.s	fa5,fa5,fa4,fa3
    264e:	1887f7d3          	fdiv.s	fa5,fa5,fs0
    2652:	02f92227          	fsw	fa5,36(s2)
    2656:	3591                	jal	249a <fast_sin>
    2658:	000067b7          	lui	a5,0x6
    265c:	a9c7a907          	flw	fs2,-1380(a5) # 5a9c <_read+0x6e>
    2660:	20a504d3          	fmv.s	fs1,fa0
    2664:	0089a507          	flw	fa0,8(s3)
    2668:	08a97553          	fsub.s	fa0,fs2,fa0
    266c:	353d                	jal	249a <fast_sin>
    266e:	02492687          	flw	fa3,36(s2)
    2672:	02092707          	flw	fa4,32(s2)
    2676:	10a6f7d3          	fmul.s	fa5,fa3,fa0
    267a:	1096f6d3          	fmul.s	fa3,fa3,fs1
    267e:	adc18b13          	addi	s6,gp,-1316 # 2000034c <iqPI>
    2682:	adc18513          	addi	a0,gp,-1316 # 2000034c <iqPI>
    2686:	789777cb          	fnmsub.s	fa5,fa4,fs1,fa5
    268a:	68a77743          	fmadd.s	fa4,fa4,fa0,fa3
    268e:	0189a507          	flw	fa0,24(s3)
    2692:	08f57553          	fsub.s	fa0,fa0,fa5
    2696:	00e92a27          	fsw	fa4,20(s2)
    269a:	00f92827          	fsw	fa5,16(s2)
    269e:	3dc9                	jal	2570 <PI_control>
    26a0:	01492787          	flw	fa5,20(s2)
    26a4:	01c9a507          	flw	fa0,28(s3)
    26a8:	ac418a93          	addi	s5,gp,-1340 # 20000334 <idPI>
    26ac:	08f57553          	fsub.s	fa0,fa0,fa5
    26b0:	ac418513          	addi	a0,gp,-1340 # 20000334 <idPI>
    26b4:	3d75                	jal	2570 <PI_control>
    26b6:	010b2787          	flw	fa5,16(s6)
    26ba:	0089a507          	flw	fa0,8(s3)
    26be:	00f9a227          	fsw	fa5,4(s3)
    26c2:	010aa787          	flw	fa5,16(s5)
    26c6:	00f9a027          	fsw	fa5,0(s3)
    26ca:	3bc1                	jal	249a <fast_sin>
    26cc:	20a504d3          	fmv.s	fs1,fa0
    26d0:	0089a507          	flw	fa0,8(s3)
    26d4:	08a97553          	fsub.s	fa0,fs2,fa0
    26d8:	33c9                	jal	249a <fast_sin>
    26da:	0049a087          	flw	ft1,4(s3)
    26de:	0009a587          	flw	fa1,0(s3)
    26e2:	000067b7          	lui	a5,0x6
    26e6:	1090f053          	fmul.s	ft0,ft1,fs1
    26ea:	3047a707          	flw	fa4,772(a5) # 6304 <sin_tab+0x85c>
    26ee:	f00007d3          	fmv.w.x	fa5,zero
    26f2:	00092023          	sw	zero,0(s2)
    26f6:	00092223          	sw	zero,4(s2)
    26fa:	00a5f047          	fmsub.s	ft0,fa1,fa0,ft0
    26fe:	10a0f553          	fmul.s	fa0,ft1,fa0
    2702:	00092423          	sw	zero,8(s2)
    2706:	86d2                	mv	a3,s4
    2708:	0209a427          	fsw	ft0,40(s3)
    270c:	5095f543          	fmadd.s	fa0,fa1,fs1,fa0
    2710:	50807447          	fmsub.s	fs0,ft0,fs0,fa0
    2714:	02a9a627          	fsw	fa0,44(s3)
    2718:	a0a79953          	flt.s	s2,fa5,fa0
    271c:	10e47453          	fmul.s	fs0,fs0,fa4
    2720:	a0879753          	flt.s	a4,fa5,fs0
    2724:	c311                	beqz	a4,2728 <foc_step+0x174>
    2726:	0909                	addi	s2,s2,2
    2728:	00006737          	lui	a4,0x6
    272c:	30872787          	flw	fa5,776(a4) # 6308 <sin_tab+0x860>
    2730:	3047a707          	flw	fa4,772(a5)
    2734:	50f077c7          	fmsub.s	fa5,ft0,fa5,fa0
    2738:	10e7f7d3          	fmul.s	fa5,fa5,fa4
    273c:	f0000753          	fmv.w.x	fa4,zero
    2740:	a0f71753          	flt.s	a4,fa4,fa5
    2744:	c311                	beqz	a4,2748 <foc_step+0x194>
    2746:	0911                	addi	s2,s2,4
    2748:	00006737          	lui	a4,0x6
    274c:	30c72087          	flw	ft1,780(a4) # 630c <sin_tab+0x864>
    2750:	68cc                	flw	fa1,20(s1)
    2752:	0104a107          	flw	ft2,16(s1)
    2756:	fff90713          	addi	a4,s2,-1
    275a:	4611                	li	a2,4
    275c:	101570d3          	fmul.s	ft1,fa0,ft1
    2760:	1825f653          	fdiv.s	fa2,fa1,ft2
    2764:	10e66563          	bltu	a2,a4,286e <foc_step+0x2ba>
    2768:	6599                	lui	a1,0x6
    276a:	00271613          	slli	a2,a4,0x2
    276e:	2a858593          	addi	a1,a1,680 # 62a8 <sin_tab+0x800>
    2772:	962e                	add	a2,a2,a1
    2774:	4210                	lw	a2,0(a2)
    2776:	8602                	jr	a2
    2778:	000066b7          	lui	a3,0x6
    277c:	3106a687          	flw	fa3,784(a3) # 6310 <sin_tab+0x868>
    2780:	000066b7          	lui	a3,0x6
    2784:	3146a787          	flw	fa5,788(a3) # 6314 <sin_tab+0x86c>
    2788:	08d076c3          	fmadd.s	fa3,ft0,fa3,ft1
    278c:	10c6f753          	fmul.s	fa4,fa3,fa2
    2790:	08f077c3          	fmadd.s	fa5,ft0,fa5,ft1
    2794:	10c7f6d3          	fmul.s	fa3,fa5,fa2
    2798:	a01d                	j	27be <foc_step+0x20a>
    279a:	3006a687          	flw	fa3,768(a3)
    279e:	00006637          	lui	a2,0x6
    27a2:	31462707          	flw	fa4,788(a2) # 6314 <sin_tab+0x86c>
    27a6:	10d576d3          	fmul.s	fa3,fa0,fa3
    27aa:	08e07743          	fmadd.s	fa4,ft0,fa4,ft1
    27ae:	10b6f6d3          	fmul.s	fa3,fa3,fa1
    27b2:	10c77753          	fmul.s	fa4,fa4,fa2
    27b6:	1826f6d3          	fdiv.s	fa3,fa3,ft2
    27ba:	20d696d3          	fneg.s	fa3,fa3
    27be:	00d777d3          	fadd.s	fa5,fa4,fa3
    27c2:	a0f596d3          	flt.s	a3,fa1,fa5
    27c6:	c699                	beqz	a3,27d4 <foc_step+0x220>
    27c8:	18f77753          	fdiv.s	fa4,fa4,fa5
    27cc:	00e6f7d3          	fadd.s	fa5,fa3,fa4
    27d0:	18f6f6d3          	fdiv.s	fa3,fa3,fa5
    27d4:	00d77653          	fadd.s	fa2,fa4,fa3
    27d8:	000066b7          	lui	a3,0x6
    27dc:	3186a787          	flw	fa5,792(a3) # 6318 <sin_tab+0x870>
    27e0:	4695                	li	a3,5
    27e2:	08c5f653          	fsub.s	fa2,fa1,fa2
    27e6:	10f67653          	fmul.s	fa2,fa2,fa5
    27ea:	3047a787          	flw	fa5,772(a5)
    27ee:	60f777c3          	fmadd.s	fa5,fa4,fa5,fa2
    27f2:	0ae6eb63          	bltu	a3,a4,28a8 <foc_step+0x2f4>
    27f6:	6699                	lui	a3,0x6
    27f8:	070a                	slli	a4,a4,0x2
    27fa:	2bc68693          	addi	a3,a3,700 # 62bc <sin_tab+0x814>
    27fe:	9736                	add	a4,a4,a3
    2800:	4318                	lw	a4,0(a4)
    2802:	8702                	jr	a4
    2804:	00006637          	lui	a2,0x6
    2808:	31062787          	flw	fa5,784(a2) # 6310 <sin_tab+0x868>
    280c:	08f077c3          	fmadd.s	fa5,ft0,fa5,ft1
    2810:	10c7f7d3          	fmul.s	fa5,fa5,fa2
    2814:	20f79753          	fneg.s	fa4,fa5
    2818:	3006a787          	flw	fa5,768(a3)
    281c:	10f57553          	fmul.s	fa0,fa0,fa5
    2820:	10b576d3          	fmul.s	fa3,fa0,fa1
    2824:	1826f6d3          	fdiv.s	fa3,fa3,ft2
    2828:	bf59                	j	27be <foc_step+0x20a>
    282a:	3006a707          	flw	fa4,768(a3)
    282e:	000066b7          	lui	a3,0x6
    2832:	3106a787          	flw	fa5,784(a3) # 6310 <sin_tab+0x868>
    2836:	10e57553          	fmul.s	fa0,fa0,fa4
    283a:	10b57553          	fmul.s	fa0,fa0,fa1
    283e:	18257553          	fdiv.s	fa0,fa0,ft2
    2842:	20a51753          	fneg.s	fa4,fa0
    2846:	b7a9                	j	2790 <foc_step+0x1dc>
    2848:	3006a707          	flw	fa4,768(a3)
    284c:	000066b7          	lui	a3,0x6
    2850:	3146a787          	flw	fa5,788(a3) # 6314 <sin_tab+0x86c>
    2854:	10e57553          	fmul.s	fa0,fa0,fa4
    2858:	10b57553          	fmul.s	fa0,fa0,fa1
    285c:	18257753          	fdiv.s	fa4,fa0,ft2
    2860:	08f077c3          	fmadd.s	fa5,ft0,fa5,ft1
    2864:	10c7f7d3          	fmul.s	fa5,fa5,fa2
    2868:	20f796d3          	fneg.s	fa3,fa5
    286c:	bf89                	j	27be <foc_step+0x20a>
    286e:	000066b7          	lui	a3,0x6
    2872:	3146a787          	flw	fa5,788(a3) # 6314 <sin_tab+0x86c>
    2876:	000066b7          	lui	a3,0x6
    287a:	08f077c3          	fmadd.s	fa5,ft0,fa5,ft1
    287e:	10c7f7d3          	fmul.s	fa5,fa5,fa2
    2882:	20f79753          	fneg.s	fa4,fa5
    2886:	3106a787          	flw	fa5,784(a3) # 6310 <sin_tab+0x868>
    288a:	bfd9                	j	2860 <foc_step+0x2ac>
    288c:	e01c                	fsw	fa5,0(s0)
    288e:	e050                	fsw	fa2,4(s0)
    2890:	3047a707          	flw	fa4,772(a5)
    2894:	78e6f7c3          	fmadd.s	fa5,fa3,fa4,fa5
    2898:	a039                	j	28a6 <foc_step+0x2f2>
    289a:	3047a707          	flw	fa4,772(a5)
    289e:	e010                	fsw	fa2,0(s0)
    28a0:	78e6f6c3          	fmadd.s	fa3,fa3,fa4,fa5
    28a4:	e054                	fsw	fa3,4(s0)
    28a6:	e41c                	fsw	fa5,8(s0)
    28a8:	601c                	flw	fa5,0(s0)
    28aa:	400139b7          	lui	s3,0x40013
    28ae:	c0098513          	addi	a0,s3,-1024 # 40012c00 <_eusrstack+0x2000ac00>
    28b2:	c01795d3          	fcvt.wu.s	a1,fa5,rtz
    28b6:	05c2                	slli	a1,a1,0x10
    28b8:	81c1                	srli	a1,a1,0x10
    28ba:	a4dfe0ef          	jal	ra,1306 <TIM_SetCompare1>
    28be:	605c                	flw	fa5,4(s0)
    28c0:	c0098513          	addi	a0,s3,-1024
    28c4:	c01795d3          	fcvt.wu.s	a1,fa5,rtz
    28c8:	05c2                	slli	a1,a1,0x10
    28ca:	81c1                	srli	a1,a1,0x10
    28cc:	a3ffe0ef          	jal	ra,130a <TIM_SetCompare2>
    28d0:	641c                	flw	fa5,8(s0)
    28d2:	c0098513          	addi	a0,s3,-1024
    28d6:	c01795d3          	fcvt.wu.s	a1,fa5,rtz
    28da:	05c2                	slli	a1,a1,0x10
    28dc:	81c1                	srli	a1,a1,0x10
    28de:	a31fe0ef          	jal	ra,130e <TIM_SetCompare3>
    28e2:	d00977d3          	fcvt.s.w	fa5,s2
    28e6:	a9818913          	addi	s2,gp,-1384 # 20000308 <ekf_data>
    28ea:	e45c                	fsw	fa5,12(s0)
    28ec:	749c                	flw	fa5,40(s1)
    28ee:	000067b7          	lui	a5,0x6
    28f2:	01c90593          	addi	a1,s2,28
    28f6:	00f92027          	fsw	fa5,0(s2)
    28fa:	74dc                	flw	fa5,44(s1)
    28fc:	a9818513          	addi	a0,gp,-1384 # 20000308 <ekf_data>
    2900:	00f92227          	fsw	fa5,4(s2)
    2904:	701c                	flw	fa5,32(s0)
    2906:	00f92427          	fsw	fa5,8(s2)
    290a:	705c                	flw	fa5,36(s0)
    290c:	00f92627          	fsw	fa5,12(s2)
    2910:	a747a787          	flw	fa5,-1420(a5) # 5a74 <_read+0x46>
    2914:	000067b7          	lui	a5,0x6
    2918:	00f92827          	fsw	fa5,16(s2)
    291c:	a787a787          	flw	fa5,-1416(a5) # 5a78 <_read+0x4a>
    2920:	000067b7          	lui	a5,0x6
    2924:	00f92a27          	fsw	fa5,20(s2)
    2928:	a7c7a787          	flw	fa5,-1412(a5) # 5a7c <_read+0x4e>
    292c:	00f92c27          	fsw	fa5,24(s2)
    2930:	bf7fe0ef          	jal	ra,1526 <Apt_Ekf_Update>
    2934:	02892787          	flw	fa5,40(s2)
    2938:	6432                	flw	fs0,12(sp)
    293a:	64a2                	flw	fs1,8(sp)
    293c:	e49c                	fsw	fa5,8(s1)
    293e:	02492787          	flw	fa5,36(s2)
    2942:	6912                	flw	fs2,4(sp)
    2944:	e4dc                	fsw	fa5,12(s1)
    2946:	0141                	addi	sp,sp,16
    2948:	903fd06f          	j	24a <__riscv_restore_4>
    294c:	e010                	fsw	fa2,0(s0)
    294e:	e05c                	fsw	fa5,4(s0)
    2950:	b781                	j	2890 <foc_step+0x2dc>
    2952:	3047a707          	flw	fa4,772(a5)
    2956:	78e6f6c3          	fmadd.s	fa3,fa3,fa4,fa5
    295a:	e014                	fsw	fa3,0(s0)
    295c:	e05c                	fsw	fa5,4(s0)
    295e:	e410                	fsw	fa2,8(s0)
    2960:	b7a1                	j	28a8 <foc_step+0x2f4>
    2962:	3047a707          	flw	fa4,772(a5)
    2966:	e050                	fsw	fa2,4(s0)
    2968:	78e6f6c3          	fmadd.s	fa3,fa3,fa4,fa5
    296c:	e014                	fsw	fa3,0(s0)
    296e:	bf25                	j	28a6 <foc_step+0x2f2>
    2970:	3047a707          	flw	fa4,772(a5)
    2974:	e01c                	fsw	fa5,0(s0)
    2976:	78e6f7c3          	fmadd.s	fa5,fa3,fa4,fa5
    297a:	b7cd                	j	295c <foc_step+0x3a8>

0000297c <Delay_Init>:
    297c:	200007b7          	lui	a5,0x20000
    2980:	0707a783          	lw	a5,112(a5) # 20000070 <SystemCoreClock>
    2984:	007a1737          	lui	a4,0x7a1
    2988:	20070713          	addi	a4,a4,512 # 7a1200 <_data_lma+0x79ad3c>
    298c:	02e7d7b3          	divu	a5,a5,a4
    2990:	0ff7f793          	andi	a5,a5,255
    2994:	a8f18723          	sb	a5,-1394(gp) # 200002fe <p_us>
    2998:	3e800713          	li	a4,1000
    299c:	02e787b3          	mul	a5,a5,a4
    29a0:	a8f19623          	sh	a5,-1396(gp) # 200002fc <p_ms>
    29a4:	8082                	ret

000029a6 <USART_Printf_Init>:
    29a6:	88bfd2ef          	jal	t0,230 <__riscv_save_0>
    29aa:	1101                	addi	sp,sp,-32
    29ac:	842a                	mv	s0,a0
    29ae:	4585                	li	a1,1
    29b0:	00040537          	lui	a0,0x40
    29b4:	d58fe0ef          	jal	ra,f0c <RCC_APB1PeriphClockCmd>
    29b8:	4585                	li	a1,1
    29ba:	4521                	li	a0,8
    29bc:	d32fe0ef          	jal	ra,eee <RCC_APB2PeriphClockCmd>
    29c0:	40000793          	li	a5,1024
    29c4:	827c                	sh	a5,4(sp)
    29c6:	40011537          	lui	a0,0x40011
    29ca:	478d                	li	a5,3
    29cc:	c43e                	sw	a5,8(sp)
    29ce:	004c                	addi	a1,sp,4
    29d0:	47e1                	li	a5,24
    29d2:	c0050513          	addi	a0,a0,-1024 # 40010c00 <_eusrstack+0x20008c00>
    29d6:	c63e                	sw	a5,12(sp)
    29d8:	a22fe0ef          	jal	ra,bfa <GPIO_Init>
    29dc:	c822                	sw	s0,16(sp)
    29de:	40005437          	lui	s0,0x40005
    29e2:	000807b7          	lui	a5,0x80
    29e6:	080c                	addi	a1,sp,16
    29e8:	80040513          	addi	a0,s0,-2048 # 40004800 <_eusrstack+0x1fffc800>
    29ec:	cc3e                	sw	a5,24(sp)
    29ee:	ca02                	sw	zero,20(sp)
    29f0:	00011e23          	sh	zero,28(sp)
    29f4:	91ffe0ef          	jal	ra,1312 <USART_Init>
    29f8:	4585                	li	a1,1
    29fa:	80040513          	addi	a0,s0,-2048
    29fe:	9cffe0ef          	jal	ra,13cc <USART_Cmd>
    2a02:	6105                	addi	sp,sp,32
    2a04:	851fd06f          	j	254 <__riscv_restore_0>

00002a08 <_write>:
    2a08:	80ffd2ef          	jal	t0,216 <__riscv_save_4>
    2a0c:	400054b7          	lui	s1,0x40005
    2a10:	89ae                	mv	s3,a1
    2a12:	8932                	mv	s2,a2
    2a14:	4401                	li	s0,0
    2a16:	80048493          	addi	s1,s1,-2048 # 40004800 <_eusrstack+0x1fffc800>
    2a1a:	01244563          	blt	s0,s2,2a24 <_write+0x1c>
    2a1e:	854a                	mv	a0,s2
    2a20:	82bfd06f          	j	24a <__riscv_restore_4>
    2a24:	04000593          	li	a1,64
    2a28:	8526                	mv	a0,s1
    2a2a:	9c1fe0ef          	jal	ra,13ea <USART_GetFlagStatus>
    2a2e:	d97d                	beqz	a0,2a24 <_write+0x1c>
    2a30:	008987b3          	add	a5,s3,s0
    2a34:	00078583          	lb	a1,0(a5) # 80000 <_data_lma+0x79b3c>
    2a38:	8526                	mv	a0,s1
    2a3a:	0405                	addi	s0,s0,1
    2a3c:	05c2                	slli	a1,a1,0x10
    2a3e:	81c1                	srli	a1,a1,0x10
    2a40:	9a3fe0ef          	jal	ra,13e2 <USART_SendData>
    2a44:	bfd9                	j	2a1a <_write+0x12>

00002a46 <_sbrk>:
    2a46:	80818713          	addi	a4,gp,-2040 # 20000078 <curbrk.5218>
    2a4a:	431c                	lw	a5,0(a4)
    2a4c:	b5018693          	addi	a3,gp,-1200 # 200003c0 <_ebss>
    2a50:	953e                	add	a0,a0,a5
    2a52:	00d56b63          	bltu	a0,a3,2a68 <_sbrk+0x22>
    2a56:	200086b7          	lui	a3,0x20008
    2a5a:	80068693          	addi	a3,a3,-2048 # 20007800 <_heap_end>
    2a5e:	00a6e563          	bltu	a3,a0,2a68 <_sbrk+0x22>
    2a62:	c308                	sw	a0,0(a4)
    2a64:	853e                	mv	a0,a5
    2a66:	8082                	ret
    2a68:	57fd                	li	a5,-1
    2a6a:	bfed                	j	2a64 <_sbrk+0x1e>

00002a6c <printchar>:
    2a6c:	1101                	addi	sp,sp,-32
    2a6e:	ce06                	sw	ra,28(sp)
    2a70:	c62e                	sw	a1,12(sp)
    2a72:	cd0d                	beqz	a0,2aac <printchar+0x40>
    2a74:	4118                	lw	a4,0(a0)
    2a76:	87aa                	mv	a5,a0
    2a78:	c305                	beqz	a4,2a98 <printchar+0x2c>
    2a7a:	4158                	lw	a4,4(a0)
    2a7c:	557d                	li	a0,-1
    2a7e:	cb11                	beqz	a4,2a92 <printchar+0x26>
    2a80:	4685                	li	a3,1
    2a82:	00d71b63          	bne	a4,a3,2a98 <printchar+0x2c>
    2a86:	4798                	lw	a4,8(a5)
    2a88:	00070023          	sb	zero,0(a4)
    2a8c:	0007a223          	sw	zero,4(a5)
    2a90:	4505                	li	a0,1
    2a92:	40f2                	lw	ra,28(sp)
    2a94:	6105                	addi	sp,sp,32
    2a96:	8082                	ret
    2a98:	4798                	lw	a4,8(a5)
    2a9a:	46b2                	lw	a3,12(sp)
    2a9c:	a314                	sb	a3,0(a4)
    2a9e:	4798                	lw	a4,8(a5)
    2aa0:	0705                	addi	a4,a4,1
    2aa2:	c798                	sw	a4,8(a5)
    2aa4:	43d8                	lw	a4,4(a5)
    2aa6:	177d                	addi	a4,a4,-1
    2aa8:	c3d8                	sw	a4,4(a5)
    2aaa:	b7dd                	j	2a90 <printchar+0x24>
    2aac:	4605                	li	a2,1
    2aae:	006c                	addi	a1,sp,12
    2ab0:	3fa1                	jal	2a08 <_write>
    2ab2:	bff9                	j	2a90 <printchar+0x24>

00002ab4 <prints>:
    2ab4:	7179                	addi	sp,sp,-48
    2ab6:	d422                	sw	s0,40(sp)
    2ab8:	d226                	sw	s1,36(sp)
    2aba:	ce4e                	sw	s3,28(sp)
    2abc:	cc52                	sw	s4,24(sp)
    2abe:	ca56                	sw	s5,20(sp)
    2ac0:	d606                	sw	ra,44(sp)
    2ac2:	d04a                	sw	s2,32(sp)
    2ac4:	c85a                	sw	s6,16(sp)
    2ac6:	8a2a                	mv	s4,a0
    2ac8:	8aae                	mv	s5,a1
    2aca:	8432                	mv	s0,a2
    2acc:	4481                	li	s1,0
    2ace:	02000993          	li	s3,32
    2ad2:	02064463          	bltz	a2,2afa <prints+0x46>
    2ad6:	009a87b3          	add	a5,s5,s1
    2ada:	00078783          	lb	a5,0(a5)
    2ade:	e39d                	bnez	a5,2b04 <prints+0x50>
    2ae0:	0284d663          	bge	s1,s0,2b0c <prints+0x58>
    2ae4:	02e4d263          	bge	s1,a4,2b08 <prints+0x54>
    2ae8:	8c19                	sub	s0,s0,a4
    2aea:	0026f793          	andi	a5,a3,2
    2aee:	02000993          	li	s3,32
    2af2:	c781                	beqz	a5,2afa <prints+0x46>
    2af4:	e319                	bnez	a4,2afa <prints+0x46>
    2af6:	03000993          	li	s3,48
    2afa:	8a85                	andi	a3,a3,1
    2afc:	4901                	li	s2,0
    2afe:	e69d                	bnez	a3,2b2c <prints+0x78>
    2b00:	8922                	mv	s2,s0
    2b02:	a829                	j	2b1c <prints+0x68>
    2b04:	0485                	addi	s1,s1,1
    2b06:	bfc1                	j	2ad6 <prints+0x22>
    2b08:	8c05                	sub	s0,s0,s1
    2b0a:	b7c5                	j	2aea <prints+0x36>
    2b0c:	4401                	li	s0,0
    2b0e:	bff1                	j	2aea <prints+0x36>
    2b10:	85ce                	mv	a1,s3
    2b12:	8552                	mv	a0,s4
    2b14:	c63a                	sw	a4,12(sp)
    2b16:	3f99                	jal	2a6c <printchar>
    2b18:	4732                	lw	a4,12(sp)
    2b1a:	197d                	addi	s2,s2,-1
    2b1c:	ff204ae3          	bgtz	s2,2b10 <prints+0x5c>
    2b20:	8922                	mv	s2,s0
    2b22:	00045363          	bgez	s0,2b28 <prints+0x74>
    2b26:	4901                	li	s2,0
    2b28:	41240433          	sub	s0,s0,s2
    2b2c:	02e4cb63          	blt	s1,a4,2b62 <prints+0xae>
    2b30:	84ca                	mv	s1,s2
    2b32:	412487b3          	sub	a5,s1,s2
    2b36:	97d6                	add	a5,a5,s5
    2b38:	00078583          	lb	a1,0(a5)
    2b3c:	ed9d                	bnez	a1,2b7a <prints+0xc6>
    2b3e:	8922                	mv	s2,s0
    2b40:	05204163          	bgtz	s2,2b82 <prints+0xce>
    2b44:	00045363          	bgez	s0,2b4a <prints+0x96>
    2b48:	4401                	li	s0,0
    2b4a:	00940533          	add	a0,s0,s1
    2b4e:	50b2                	lw	ra,44(sp)
    2b50:	5422                	lw	s0,40(sp)
    2b52:	5492                	lw	s1,36(sp)
    2b54:	5902                	lw	s2,32(sp)
    2b56:	49f2                	lw	s3,28(sp)
    2b58:	4a62                	lw	s4,24(sp)
    2b5a:	4ad2                	lw	s5,20(sp)
    2b5c:	4b42                	lw	s6,16(sp)
    2b5e:	6145                	addi	sp,sp,48
    2b60:	8082                	ret
    2b62:	409704b3          	sub	s1,a4,s1
    2b66:	8b26                	mv	s6,s1
    2b68:	03000593          	li	a1,48
    2b6c:	8552                	mv	a0,s4
    2b6e:	1b7d                	addi	s6,s6,-1
    2b70:	3df5                	jal	2a6c <printchar>
    2b72:	fe0b1be3          	bnez	s6,2b68 <prints+0xb4>
    2b76:	9926                	add	s2,s2,s1
    2b78:	bf65                	j	2b30 <prints+0x7c>
    2b7a:	8552                	mv	a0,s4
    2b7c:	3dc5                	jal	2a6c <printchar>
    2b7e:	0485                	addi	s1,s1,1
    2b80:	bf4d                	j	2b32 <prints+0x7e>
    2b82:	85ce                	mv	a1,s3
    2b84:	8552                	mv	a0,s4
    2b86:	35dd                	jal	2a6c <printchar>
    2b88:	197d                	addi	s2,s2,-1
    2b8a:	bf5d                	j	2b40 <prints+0x8c>

00002b8c <printInt>:
    2b8c:	715d                	addi	sp,sp,-80
    2b8e:	c2a6                	sw	s1,68(sp)
    2b90:	dc52                	sw	s4,56(sp)
    2b92:	c686                	sw	ra,76(sp)
    2b94:	c4a2                	sw	s0,72(sp)
    2b96:	c0ca                	sw	s2,64(sp)
    2b98:	de4e                	sw	s3,60(sp)
    2b9a:	da56                	sw	s5,52(sp)
    2b9c:	84ba                	mv	s1,a4
    2b9e:	8a3e                	mv	s4,a5
    2ba0:	e195                	bnez	a1,2bc4 <printInt+0x38>
    2ba2:	03000793          	li	a5,48
    2ba6:	4701                	li	a4,0
    2ba8:	86d2                	mv	a3,s4
    2baa:	8626                	mv	a2,s1
    2bac:	082c                	addi	a1,sp,24
    2bae:	84fc                	sh	a5,24(sp)
    2bb0:	3711                	jal	2ab4 <prints>
    2bb2:	40b6                	lw	ra,76(sp)
    2bb4:	4426                	lw	s0,72(sp)
    2bb6:	4496                	lw	s1,68(sp)
    2bb8:	4906                	lw	s2,64(sp)
    2bba:	59f2                	lw	s3,60(sp)
    2bbc:	5a62                	lw	s4,56(sp)
    2bbe:	5ad2                	lw	s5,52(sp)
    2bc0:	6161                	addi	sp,sp,80
    2bc2:	8082                	ret
    2bc4:	892a                	mv	s2,a0
    2bc6:	8436                	mv	s0,a3
    2bc8:	8ac6                	mv	s5,a7
    2bca:	ca91                	beqz	a3,2bde <printInt+0x52>
    2bcc:	47a9                	li	a5,10
    2bce:	4401                	li	s0,0
    2bd0:	00f61763          	bne	a2,a5,2bde <printInt+0x52>
    2bd4:	0005d563          	bgez	a1,2bde <printInt+0x52>
    2bd8:	40b005b3          	neg	a1,a1
    2bdc:	4405                	li	s0,1
    2bde:	020107a3          	sb	zero,47(sp)
    2be2:	02f10793          	addi	a5,sp,47
    2be6:	46a5                	li	a3,9
    2be8:	fc680513          	addi	a0,a6,-58
    2bec:	02c5f733          	remu	a4,a1,a2
    2bf0:	00e6d363          	bge	a3,a4,2bf6 <printInt+0x6a>
    2bf4:	972a                	add	a4,a4,a0
    2bf6:	03070713          	addi	a4,a4,48
    2bfa:	fee78fa3          	sb	a4,-1(a5)
    2bfe:	fff78993          	addi	s3,a5,-1
    2c02:	02c5d733          	divu	a4,a1,a2
    2c06:	04c5fb63          	bgeu	a1,a2,2c5c <printInt+0xd0>
    2c0a:	cc09                	beqz	s0,2c24 <printInt+0x98>
    2c0c:	c8b9                	beqz	s1,2c62 <printInt+0xd6>
    2c0e:	002a7713          	andi	a4,s4,2
    2c12:	cb21                	beqz	a4,2c62 <printInt+0xd6>
    2c14:	02d00593          	li	a1,45
    2c18:	854a                	mv	a0,s2
    2c1a:	c642                	sw	a6,12(sp)
    2c1c:	e51ff0ef          	jal	ra,2a6c <printchar>
    2c20:	4832                	lw	a6,12(sp)
    2c22:	14fd                	addi	s1,s1,-1
    2c24:	004a7793          	andi	a5,s4,4
    2c28:	c38d                	beqz	a5,2c4a <printInt+0xbe>
    2c2a:	06100793          	li	a5,97
    2c2e:	03000593          	li	a1,48
    2c32:	854a                	mv	a0,s2
    2c34:	02f81f63          	bne	a6,a5,2c72 <printInt+0xe6>
    2c38:	e35ff0ef          	jal	ra,2a6c <printchar>
    2c3c:	07800593          	li	a1,120
    2c40:	854a                	mv	a0,s2
    2c42:	e2bff0ef          	jal	ra,2a6c <printchar>
    2c46:	0409                	addi	s0,s0,2
    2c48:	14f9                	addi	s1,s1,-2
    2c4a:	8756                	mv	a4,s5
    2c4c:	86d2                	mv	a3,s4
    2c4e:	8626                	mv	a2,s1
    2c50:	85ce                	mv	a1,s3
    2c52:	854a                	mv	a0,s2
    2c54:	e61ff0ef          	jal	ra,2ab4 <prints>
    2c58:	9522                	add	a0,a0,s0
    2c5a:	bfa1                	j	2bb2 <printInt+0x26>
    2c5c:	85ba                	mv	a1,a4
    2c5e:	87ce                	mv	a5,s3
    2c60:	b771                	j	2bec <printInt+0x60>
    2c62:	02d00713          	li	a4,45
    2c66:	fee98fa3          	sb	a4,-1(s3)
    2c6a:	4401                	li	s0,0
    2c6c:	ffe78993          	addi	s3,a5,-2
    2c70:	bf55                	j	2c24 <printInt+0x98>
    2c72:	dfbff0ef          	jal	ra,2a6c <printchar>
    2c76:	05800593          	li	a1,88
    2c7a:	b7d9                	j	2c40 <printInt+0xb4>

00002c7c <printLongLongInt>:
    2c7c:	711d                	addi	sp,sp,-96
    2c7e:	c8ca                	sw	s2,80(sp)
    2c80:	c6ce                	sw	s3,76(sp)
    2c82:	c2d6                	sw	s5,68(sp)
    2c84:	c0da                	sw	s6,64(sp)
    2c86:	893a                	mv	s2,a4
    2c88:	ce86                	sw	ra,92(sp)
    2c8a:	cca2                	sw	s0,88(sp)
    2c8c:	caa6                	sw	s1,84(sp)
    2c8e:	c4d2                	sw	s4,72(sp)
    2c90:	de5e                	sw	s7,60(sp)
    2c92:	dc62                	sw	s8,56(sp)
    2c94:	da66                	sw	s9,52(sp)
    2c96:	d86a                	sw	s10,48(sp)
    2c98:	d66e                	sw	s11,44(sp)
    2c9a:	00c5e733          	or	a4,a1,a2
    2c9e:	89be                	mv	s3,a5
    2ca0:	8aaa                	mv	s5,a0
    2ca2:	8b42                	mv	s6,a6
    2ca4:	06014783          	lbu	a5,96(sp)
    2ca8:	e331                	bnez	a4,2cec <printLongLongInt+0x70>
    2caa:	cf8d                	beqz	a5,2ce4 <printLongLongInt+0x68>
    2cac:	678d                	lui	a5,0x3
    2cae:	02d78793          	addi	a5,a5,45 # 302d <print+0x18b>
    2cb2:	847c                	sh	a5,8(sp)
    2cb4:	00010523          	sb	zero,10(sp)
    2cb8:	4701                	li	a4,0
    2cba:	86da                	mv	a3,s6
    2cbc:	864e                	mv	a2,s3
    2cbe:	002c                	addi	a1,sp,8
    2cc0:	8556                	mv	a0,s5
    2cc2:	df3ff0ef          	jal	ra,2ab4 <prints>
    2cc6:	40f6                	lw	ra,92(sp)
    2cc8:	4466                	lw	s0,88(sp)
    2cca:	44d6                	lw	s1,84(sp)
    2ccc:	4946                	lw	s2,80(sp)
    2cce:	49b6                	lw	s3,76(sp)
    2cd0:	4a26                	lw	s4,72(sp)
    2cd2:	4a96                	lw	s5,68(sp)
    2cd4:	4b06                	lw	s6,64(sp)
    2cd6:	5bf2                	lw	s7,60(sp)
    2cd8:	5c62                	lw	s8,56(sp)
    2cda:	5cd2                	lw	s9,52(sp)
    2cdc:	5d42                	lw	s10,48(sp)
    2cde:	5db2                	lw	s11,44(sp)
    2ce0:	6125                	addi	sp,sp,96
    2ce2:	8082                	ret
    2ce4:	03000793          	li	a5,48
    2ce8:	847c                	sh	a5,8(sp)
    2cea:	b7f9                	j	2cb8 <printLongLongInt+0x3c>
    2cec:	8a36                	mv	s4,a3
    2cee:	84ae                	mv	s1,a1
    2cf0:	8432                	mv	s0,a2
    2cf2:	02090063          	beqz	s2,2d12 <printLongLongInt+0x96>
    2cf6:	47a9                	li	a5,10
    2cf8:	4901                	li	s2,0
    2cfa:	00f69c63          	bne	a3,a5,2d12 <printLongLongInt+0x96>
    2cfe:	00065a63          	bgez	a2,2d12 <printLongLongInt+0x96>
    2d02:	40b004b3          	neg	s1,a1
    2d06:	009037b3          	snez	a5,s1
    2d0a:	40c00433          	neg	s0,a2
    2d0e:	8c1d                	sub	s0,s0,a5
    2d10:	4905                	li	s2,1
    2d12:	00010fa3          	sb	zero,31(sp)
    2d16:	01f10d13          	addi	s10,sp,31
    2d1a:	41fa5d93          	srai	s11,s4,0x1f
    2d1e:	4ca5                	li	s9,9
    2d20:	fc688c13          	addi	s8,a7,-58
    2d24:	8652                	mv	a2,s4
    2d26:	86ee                	mv	a3,s11
    2d28:	8526                	mv	a0,s1
    2d2a:	85a2                	mv	a1,s0
    2d2c:	085000ef          	jal	ra,35b0 <__umoddi3>
    2d30:	00acd363          	bge	s9,a0,2d36 <printLongLongInt+0xba>
    2d34:	9562                	add	a0,a0,s8
    2d36:	03050513          	addi	a0,a0,48
    2d3a:	fead0fa3          	sb	a0,-1(s10)
    2d3e:	8652                	mv	a2,s4
    2d40:	86ee                	mv	a3,s11
    2d42:	8526                	mv	a0,s1
    2d44:	85a2                	mv	a1,s0
    2d46:	fffd0b93          	addi	s7,s10,-1
    2d4a:	29d1                	jal	321e <__udivdi3>
    2d4c:	01b46663          	bltu	s0,s11,2d58 <printLongLongInt+0xdc>
    2d50:	028d9a63          	bne	s11,s0,2d84 <printLongLongInt+0x108>
    2d54:	0344f863          	bgeu	s1,s4,2d84 <printLongLongInt+0x108>
    2d58:	00090d63          	beqz	s2,2d72 <printLongLongInt+0xf6>
    2d5c:	02098863          	beqz	s3,2d8c <printLongLongInt+0x110>
    2d60:	002b7793          	andi	a5,s6,2
    2d64:	c785                	beqz	a5,2d8c <printLongLongInt+0x110>
    2d66:	02d00593          	li	a1,45
    2d6a:	8556                	mv	a0,s5
    2d6c:	d01ff0ef          	jal	ra,2a6c <printchar>
    2d70:	19fd                	addi	s3,s3,-1
    2d72:	4701                	li	a4,0
    2d74:	86da                	mv	a3,s6
    2d76:	864e                	mv	a2,s3
    2d78:	85de                	mv	a1,s7
    2d7a:	8556                	mv	a0,s5
    2d7c:	d39ff0ef          	jal	ra,2ab4 <prints>
    2d80:	954a                	add	a0,a0,s2
    2d82:	b791                	j	2cc6 <printLongLongInt+0x4a>
    2d84:	84aa                	mv	s1,a0
    2d86:	842e                	mv	s0,a1
    2d88:	8d5e                	mv	s10,s7
    2d8a:	bf69                	j	2d24 <printLongLongInt+0xa8>
    2d8c:	02d00793          	li	a5,45
    2d90:	fefb8fa3          	sb	a5,-1(s7)
    2d94:	4901                	li	s2,0
    2d96:	ffed0b93          	addi	s7,s10,-2
    2d9a:	bfe1                	j	2d72 <printLongLongInt+0xf6>

00002d9c <printDouble>:
    2d9c:	711d                	addi	sp,sp,-96
    2d9e:	c6ce                	sw	s3,76(sp)
    2da0:	89b2                	mv	s3,a2
    2da2:	cca2                	sw	s0,88(sp)
    2da4:	4601                	li	a2,0
    2da6:	842a                	mv	s0,a0
    2da8:	caa6                	sw	s1,84(sp)
    2daa:	c8ca                	sw	s2,80(sp)
    2dac:	84b6                	mv	s1,a3
    2dae:	892e                	mv	s2,a1
    2db0:	4681                	li	a3,0
    2db2:	852e                	mv	a0,a1
    2db4:	85ce                	mv	a1,s3
    2db6:	ce86                	sw	ra,92(sp)
    2db8:	ce3a                	sw	a4,28(sp)
    2dba:	cc42                	sw	a6,24(sp)
    2dbc:	c4d2                	sw	s4,72(sp)
    2dbe:	c2d6                	sw	s5,68(sp)
    2dc0:	8a3e                	mv	s4,a5
    2dc2:	8ac6                	mv	s5,a7
    2dc4:	c0da                	sw	s6,64(sp)
    2dc6:	de5e                	sw	s7,60(sp)
    2dc8:	dc62                	sw	s8,56(sp)
    2dca:	da66                	sw	s9,52(sp)
    2dcc:	d86a                	sw	s10,48(sp)
    2dce:	d66e                	sw	s11,44(sp)
    2dd0:	36b000ef          	jal	ra,393a <__ledf2>
    2dd4:	01f55b13          	srli	s6,a0,0x1f
    2dd8:	85ce                	mv	a1,s3
    2dda:	854a                	mv	a0,s2
    2ddc:	4f7010ef          	jal	ra,4ad2 <__fixdfdi>
    2de0:	4772                	lw	a4,28(sp)
    2de2:	4862                	lw	a6,24(sp)
    2de4:	8cae                	mv	s9,a1
    2de6:	87ba                	mv	a5,a4
    2de8:	85aa                	mv	a1,a0
    2dea:	4705                	li	a4,1
    2dec:	88d6                	mv	a7,s5
    2dee:	86a6                	mv	a3,s1
    2df0:	8666                	mv	a2,s9
    2df2:	8c2a                	mv	s8,a0
    2df4:	c05a                	sw	s6,0(sp)
    2df6:	8522                	mv	a0,s0
    2df8:	e85ff0ef          	jal	ra,2c7c <printLongLongInt>
    2dfc:	8d2a                	mv	s10,a0
    2dfe:	02e00593          	li	a1,46
    2e02:	8522                	mv	a0,s0
    2e04:	c69ff0ef          	jal	ra,2a6c <printchar>
    2e08:	0d05                	addi	s10,s10,1
    2e0a:	4781                	li	a5,0
    2e0c:	4d85                	li	s11,1
    2e0e:	4b81                	li	s7,0
    2e10:	4729                	li	a4,10
    2e12:	0747cf63          	blt	a5,s4,2e90 <printDouble+0xf4>
    2e16:	8562                	mv	a0,s8
    2e18:	85e6                	mv	a1,s9
    2e1a:	5e9010ef          	jal	ra,4c02 <__floatdidf>
    2e1e:	862a                	mv	a2,a0
    2e20:	86ae                	mv	a3,a1
    2e22:	854a                	mv	a0,s2
    2e24:	85ce                	mv	a1,s3
    2e26:	220010ef          	jal	ra,4046 <__subdf3>
    2e2a:	892a                	mv	s2,a0
    2e2c:	89ae                	mv	s3,a1
    2e2e:	856e                	mv	a0,s11
    2e30:	85de                	mv	a1,s7
    2e32:	5d1010ef          	jal	ra,4c02 <__floatdidf>
    2e36:	862a                	mv	a2,a0
    2e38:	86ae                	mv	a3,a1
    2e3a:	854a                	mv	a0,s2
    2e3c:	85ce                	mv	a1,s3
    2e3e:	3b3000ef          	jal	ra,39f0 <__muldf3>
    2e42:	491010ef          	jal	ra,4ad2 <__fixdfdi>
    2e46:	41f5d613          	srai	a2,a1,0x1f
    2e4a:	8d31                	xor	a0,a0,a2
    2e4c:	00b647b3          	xor	a5,a2,a1
    2e50:	40c505b3          	sub	a1,a0,a2
    2e54:	00b53533          	sltu	a0,a0,a1
    2e58:	40c78633          	sub	a2,a5,a2
    2e5c:	c05a                	sw	s6,0(sp)
    2e5e:	88d6                	mv	a7,s5
    2e60:	87d2                	mv	a5,s4
    2e62:	86a6                	mv	a3,s1
    2e64:	8e09                	sub	a2,a2,a0
    2e66:	4809                	li	a6,2
    2e68:	8522                	mv	a0,s0
    2e6a:	4705                	li	a4,1
    2e6c:	e11ff0ef          	jal	ra,2c7c <printLongLongInt>
    2e70:	40f6                	lw	ra,92(sp)
    2e72:	4466                	lw	s0,88(sp)
    2e74:	956a                	add	a0,a0,s10
    2e76:	44d6                	lw	s1,84(sp)
    2e78:	4946                	lw	s2,80(sp)
    2e7a:	49b6                	lw	s3,76(sp)
    2e7c:	4a26                	lw	s4,72(sp)
    2e7e:	4a96                	lw	s5,68(sp)
    2e80:	4b06                	lw	s6,64(sp)
    2e82:	5bf2                	lw	s7,60(sp)
    2e84:	5c62                	lw	s8,56(sp)
    2e86:	5cd2                	lw	s9,52(sp)
    2e88:	5d42                	lw	s10,48(sp)
    2e8a:	5db2                	lw	s11,44(sp)
    2e8c:	6125                	addi	sp,sp,96
    2e8e:	8082                	ret
    2e90:	037706b3          	mul	a3,a4,s7
    2e94:	0785                	addi	a5,a5,1
    2e96:	03b73bb3          	mulhu	s7,a4,s11
    2e9a:	03b70db3          	mul	s11,a4,s11
    2e9e:	9bb6                	add	s7,s7,a3
    2ea0:	bf8d                	j	2e12 <printDouble+0x76>

00002ea2 <print>:
    2ea2:	715d                	addi	sp,sp,-80
    2ea4:	d85a                	sw	s6,48(sp)
    2ea6:	00006b37          	lui	s6,0x6
    2eaa:	c4a2                	sw	s0,72(sp)
    2eac:	c2a6                	sw	s1,68(sp)
    2eae:	c0ca                	sw	s2,64(sp)
    2eb0:	de4e                	sw	s3,60(sp)
    2eb2:	dc52                	sw	s4,56(sp)
    2eb4:	da56                	sw	s5,52(sp)
    2eb6:	d65e                	sw	s7,44(sp)
    2eb8:	d462                	sw	s8,40(sp)
    2eba:	c686                	sw	ra,76(sp)
    2ebc:	d266                	sw	s9,36(sp)
    2ebe:	89aa                	mv	s3,a0
    2ec0:	892e                	mv	s2,a1
    2ec2:	8432                	mv	s0,a2
    2ec4:	4a01                	li	s4,0
    2ec6:	4481                	li	s1,0
    2ec8:	02500b93          	li	s7,37
    2ecc:	02b00a93          	li	s5,43
    2ed0:	4c29                	li	s8,10
    2ed2:	31cb0b13          	addi	s6,s6,796 # 631c <sin_tab+0x874>
    2ed6:	00090583          	lb	a1,0(s2)
    2eda:	e58d                	bnez	a1,2f04 <print+0x62>
    2edc:	00098663          	beqz	s3,2ee8 <print+0x46>
    2ee0:	4581                	li	a1,0
    2ee2:	854e                	mv	a0,s3
    2ee4:	b89ff0ef          	jal	ra,2a6c <printchar>
    2ee8:	40b6                	lw	ra,76(sp)
    2eea:	4426                	lw	s0,72(sp)
    2eec:	8526                	mv	a0,s1
    2eee:	4906                	lw	s2,64(sp)
    2ef0:	4496                	lw	s1,68(sp)
    2ef2:	59f2                	lw	s3,60(sp)
    2ef4:	5a62                	lw	s4,56(sp)
    2ef6:	5ad2                	lw	s5,52(sp)
    2ef8:	5b42                	lw	s6,48(sp)
    2efa:	5bb2                	lw	s7,44(sp)
    2efc:	5c22                	lw	s8,40(sp)
    2efe:	5c92                	lw	s9,36(sp)
    2f00:	6161                	addi	sp,sp,80
    2f02:	8082                	ret
    2f04:	01758863          	beq	a1,s7,2f14 <print+0x72>
    2f08:	854e                	mv	a0,s3
    2f0a:	b63ff0ef          	jal	ra,2a6c <printchar>
    2f0e:	0485                	addi	s1,s1,1
    2f10:	0905                	addi	s2,s2,1
    2f12:	b7d1                	j	2ed6 <print+0x34>
    2f14:	00190783          	lb	a5,1(s2)
    2f18:	00190c93          	addi	s9,s2,1
    2f1c:	01779a63          	bne	a5,s7,2f30 <print+0x8e>
    2f20:	02500593          	li	a1,37
    2f24:	854e                	mv	a0,s3
    2f26:	b47ff0ef          	jal	ra,2a6c <printchar>
    2f2a:	0485                	addi	s1,s1,1
    2f2c:	8966                	mv	s2,s9
    2f2e:	b7cd                	j	2f10 <print+0x6e>
    2f30:	d7d5                	beqz	a5,2edc <print+0x3a>
    2f32:	05578763          	beq	a5,s5,2f80 <print+0xde>
    2f36:	00fac863          	blt	s5,a5,2f46 <print+0xa4>
    2f3a:	02300713          	li	a4,35
    2f3e:	04e78463          	beq	a5,a4,2f86 <print+0xe4>
    2f42:	4781                	li	a5,0
    2f44:	a005                	j	2f64 <print+0xc2>
    2f46:	02d00713          	li	a4,45
    2f4a:	00e78a63          	beq	a5,a4,2f5e <print+0xbc>
    2f4e:	03000713          	li	a4,48
    2f52:	fee798e3          	bne	a5,a4,2f42 <print+0xa0>
    2f56:	00290c93          	addi	s9,s2,2
    2f5a:	4789                	li	a5,2
    2f5c:	a021                	j	2f64 <print+0xc2>
    2f5e:	00290c93          	addi	s9,s2,2
    2f62:	4785                	li	a5,1
    2f64:	000c8703          	lb	a4,0(s9)
    2f68:	05570363          	beq	a4,s5,2fae <print+0x10c>
    2f6c:	02eac163          	blt	s5,a4,2f8e <print+0xec>
    2f70:	02300693          	li	a3,35
    2f74:	02d70b63          	beq	a4,a3,2faa <print+0x108>
    2f78:	8966                	mv	s2,s9
    2f7a:	4501                	li	a0,0
    2f7c:	45a5                	li	a1,9
    2f7e:	a835                	j	2fba <print+0x118>
    2f80:	00290c93          	addi	s9,s2,2
    2f84:	bf7d                	j	2f42 <print+0xa0>
    2f86:	00290c93          	addi	s9,s2,2
    2f8a:	4791                	li	a5,4
    2f8c:	bfe1                	j	2f64 <print+0xc2>
    2f8e:	02d00693          	li	a3,45
    2f92:	00d70963          	beq	a4,a3,2fa4 <print+0x102>
    2f96:	03000693          	li	a3,48
    2f9a:	fcd71fe3          	bne	a4,a3,2f78 <print+0xd6>
    2f9e:	0027e793          	ori	a5,a5,2
    2fa2:	a031                	j	2fae <print+0x10c>
    2fa4:	0c85                	addi	s9,s9,1
    2fa6:	4785                	li	a5,1
    2fa8:	bfc1                	j	2f78 <print+0xd6>
    2faa:	0047e793          	ori	a5,a5,4
    2fae:	0c85                	addi	s9,s9,1
    2fb0:	b7e1                	j	2f78 <print+0xd6>
    2fb2:	03850533          	mul	a0,a0,s8
    2fb6:	0905                	addi	s2,s2,1
    2fb8:	9536                	add	a0,a0,a3
    2fba:	00090703          	lb	a4,0(s2)
    2fbe:	fd070693          	addi	a3,a4,-48
    2fc2:	0ff6f613          	andi	a2,a3,255
    2fc6:	fec5f6e3          	bgeu	a1,a2,2fb2 <print+0x110>
    2fca:	02e00613          	li	a2,46
    2fce:	4699                	li	a3,6
    2fd0:	00c71e63          	bne	a4,a2,2fec <print+0x14a>
    2fd4:	0905                	addi	s2,s2,1
    2fd6:	4681                	li	a3,0
    2fd8:	4625                	li	a2,9
    2fda:	00090703          	lb	a4,0(s2)
    2fde:	fd070713          	addi	a4,a4,-48
    2fe2:	0ff77593          	andi	a1,a4,255
    2fe6:	02b67563          	bgeu	a2,a1,3010 <print+0x16e>
    2fea:	8a36                	mv	s4,a3
    2fec:	00090703          	lb	a4,0(s2)
    2ff0:	06a00613          	li	a2,106
    2ff4:	0ac70963          	beq	a4,a2,30a6 <print+0x204>
    2ff8:	02e64163          	blt	a2,a4,301a <print+0x178>
    2ffc:	04c00613          	li	a2,76
    3000:	0ac70363          	beq	a4,a2,30a6 <print+0x204>
    3004:	06800613          	li	a2,104
    3008:	08c70863          	beq	a4,a2,3098 <print+0x1f6>
    300c:	4601                	li	a2,0
    300e:	a81d                	j	3044 <print+0x1a2>
    3010:	038686b3          	mul	a3,a3,s8
    3014:	0905                	addi	s2,s2,1
    3016:	96ba                	add	a3,a3,a4
    3018:	b7c9                	j	2fda <print+0x138>
    301a:	07400613          	li	a2,116
    301e:	08c70463          	beq	a4,a2,30a6 <print+0x204>
    3022:	07a00613          	li	a2,122
    3026:	08c70063          	beq	a4,a2,30a6 <print+0x204>
    302a:	06c00593          	li	a1,108
    302e:	4601                	li	a2,0
    3030:	00b71a63          	bne	a4,a1,3044 <print+0x1a2>
    3034:	00190583          	lb	a1,1(s2)
    3038:	460d                	li	a2,3
    303a:	00e59463          	bne	a1,a4,3042 <print+0x1a0>
    303e:	0905                	addi	s2,s2,1
    3040:	4611                	li	a2,4
    3042:	0905                	addi	s2,s2,1
    3044:	00090703          	lb	a4,0(s2)
    3048:	06000593          	li	a1,96
    304c:	06100813          	li	a6,97
    3050:	00e5c463          	blt	a1,a4,3058 <print+0x1b6>
    3054:	04100813          	li	a6,65
    3058:	06700593          	li	a1,103
    305c:	06e5c263          	blt	a1,a4,30c0 <print+0x21e>
    3060:	06500593          	li	a1,101
    3064:	16b75963          	bge	a4,a1,31d6 <print+0x334>
    3068:	04700593          	li	a1,71
    306c:	02e5cf63          	blt	a1,a4,30aa <print+0x208>
    3070:	04500613          	li	a2,69
    3074:	16c75163          	bge	a4,a2,31d6 <print+0x334>
    3078:	04300693          	li	a3,67
    307c:	e8d71ae3          	bne	a4,a3,2f10 <print+0x6e>
    3080:	4018                	lw	a4,0(s0)
    3082:	00440c93          	addi	s9,s0,4
    3086:	00010ea3          	sb	zero,29(sp)
    308a:	00e10e23          	sb	a4,28(sp)
    308e:	86be                	mv	a3,a5
    3090:	4701                	li	a4,0
    3092:	862a                	mv	a2,a0
    3094:	086c                	addi	a1,sp,28
    3096:	a071                	j	3122 <print+0x280>
    3098:	00190583          	lb	a1,1(s2)
    309c:	4601                	li	a2,0
    309e:	fae593e3          	bne	a1,a4,3044 <print+0x1a2>
    30a2:	0909                	addi	s2,s2,2
    30a4:	b745                	j	3044 <print+0x1a2>
    30a6:	0905                	addi	s2,s2,1
    30a8:	b795                	j	300c <print+0x16a>
    30aa:	06300693          	li	a3,99
    30ae:	fcd709e3          	beq	a4,a3,3080 <print+0x1de>
    30b2:	06e6ce63          	blt	a3,a4,312e <print+0x28c>
    30b6:	05800693          	li	a3,88
    30ba:	02d70363          	beq	a4,a3,30e0 <print+0x23e>
    30be:	bd89                	j	2f10 <print+0x6e>
    30c0:	07300693          	li	a3,115
    30c4:	04d70663          	beq	a4,a3,3110 <print+0x26e>
    30c8:	02e6cd63          	blt	a3,a4,3102 <print+0x260>
    30cc:	06f00693          	li	a3,111
    30d0:	0cd70b63          	beq	a4,a3,31a6 <print+0x304>
    30d4:	07000693          	li	a3,112
    30d8:	0047e793          	ori	a5,a5,4
    30dc:	e2d71ae3          	bne	a4,a3,2f10 <print+0x6e>
    30e0:	4711                	li	a4,4
    30e2:	0ae61b63          	bne	a2,a4,3198 <print+0x2f6>
    30e6:	041d                	addi	s0,s0,7
    30e8:	ff847713          	andi	a4,s0,-8
    30ec:	430c                	lw	a1,0(a4)
    30ee:	4350                	lw	a2,4(a4)
    30f0:	00870413          	addi	s0,a4,8
    30f4:	88c2                	mv	a7,a6
    30f6:	c002                	sw	zero,0(sp)
    30f8:	883e                	mv	a6,a5
    30fa:	4701                	li	a4,0
    30fc:	87aa                	mv	a5,a0
    30fe:	46c1                	li	a3,16
    3100:	a0b9                	j	314e <print+0x2ac>
    3102:	07500693          	li	a3,117
    3106:	06d70363          	beq	a4,a3,316c <print+0x2ca>
    310a:	07800693          	li	a3,120
    310e:	b775                	j	30ba <print+0x218>
    3110:	4018                	lw	a4,0(s0)
    3112:	00440c93          	addi	s9,s0,4
    3116:	85da                	mv	a1,s6
    3118:	c311                	beqz	a4,311c <print+0x27a>
    311a:	85ba                	mv	a1,a4
    311c:	8752                	mv	a4,s4
    311e:	86be                	mv	a3,a5
    3120:	862a                	mv	a2,a0
    3122:	854e                	mv	a0,s3
    3124:	991ff0ef          	jal	ra,2ab4 <prints>
    3128:	94aa                	add	s1,s1,a0
    312a:	8466                	mv	s0,s9
    312c:	b3d5                	j	2f10 <print+0x6e>
    312e:	4711                	li	a4,4
    3130:	02e61463          	bne	a2,a4,3158 <print+0x2b6>
    3134:	041d                	addi	s0,s0,7
    3136:	ff847713          	andi	a4,s0,-8
    313a:	430c                	lw	a1,0(a4)
    313c:	4350                	lw	a2,4(a4)
    313e:	00870413          	addi	s0,a4,8
    3142:	88c2                	mv	a7,a6
    3144:	c002                	sw	zero,0(sp)
    3146:	883e                	mv	a6,a5
    3148:	4705                	li	a4,1
    314a:	87aa                	mv	a5,a0
    314c:	46a9                	li	a3,10
    314e:	854e                	mv	a0,s3
    3150:	b2dff0ef          	jal	ra,2c7c <printLongLongInt>
    3154:	94aa                	add	s1,s1,a0
    3156:	bb6d                	j	2f10 <print+0x6e>
    3158:	400c                	lw	a1,0(s0)
    315a:	88d2                	mv	a7,s4
    315c:	0411                	addi	s0,s0,4
    315e:	872a                	mv	a4,a0
    3160:	4685                	li	a3,1
    3162:	4629                	li	a2,10
    3164:	854e                	mv	a0,s3
    3166:	a27ff0ef          	jal	ra,2b8c <printInt>
    316a:	b7ed                	j	3154 <print+0x2b2>
    316c:	4711                	li	a4,4
    316e:	00e61f63          	bne	a2,a4,318c <print+0x2ea>
    3172:	041d                	addi	s0,s0,7
    3174:	ff847713          	andi	a4,s0,-8
    3178:	430c                	lw	a1,0(a4)
    317a:	4350                	lw	a2,4(a4)
    317c:	00870413          	addi	s0,a4,8
    3180:	88c2                	mv	a7,a6
    3182:	c002                	sw	zero,0(sp)
    3184:	883e                	mv	a6,a5
    3186:	4701                	li	a4,0
    3188:	87aa                	mv	a5,a0
    318a:	b7c9                	j	314c <print+0x2aa>
    318c:	400c                	lw	a1,0(s0)
    318e:	88d2                	mv	a7,s4
    3190:	0411                	addi	s0,s0,4
    3192:	872a                	mv	a4,a0
    3194:	4681                	li	a3,0
    3196:	b7f1                	j	3162 <print+0x2c0>
    3198:	400c                	lw	a1,0(s0)
    319a:	88d2                	mv	a7,s4
    319c:	0411                	addi	s0,s0,4
    319e:	872a                	mv	a4,a0
    31a0:	4681                	li	a3,0
    31a2:	4641                	li	a2,16
    31a4:	b7c1                	j	3164 <print+0x2c2>
    31a6:	4711                	li	a4,4
    31a8:	02e61063          	bne	a2,a4,31c8 <print+0x326>
    31ac:	041d                	addi	s0,s0,7
    31ae:	ff847713          	andi	a4,s0,-8
    31b2:	430c                	lw	a1,0(a4)
    31b4:	4350                	lw	a2,4(a4)
    31b6:	00870413          	addi	s0,a4,8
    31ba:	88c2                	mv	a7,a6
    31bc:	c002                	sw	zero,0(sp)
    31be:	883e                	mv	a6,a5
    31c0:	4701                	li	a4,0
    31c2:	87aa                	mv	a5,a0
    31c4:	46a1                	li	a3,8
    31c6:	b761                	j	314e <print+0x2ac>
    31c8:	400c                	lw	a1,0(s0)
    31ca:	88d2                	mv	a7,s4
    31cc:	0411                	addi	s0,s0,4
    31ce:	872a                	mv	a4,a0
    31d0:	4681                	li	a3,0
    31d2:	4621                	li	a2,8
    31d4:	bf41                	j	3164 <print+0x2c2>
    31d6:	041d                	addi	s0,s0,7
    31d8:	ff847613          	andi	a2,s0,-8
    31dc:	00860413          	addi	s0,a2,8
    31e0:	420c                	lw	a1,0(a2)
    31e2:	4250                	lw	a2,4(a2)
    31e4:	40d50733          	sub	a4,a0,a3
    31e8:	88c2                	mv	a7,a6
    31ea:	177d                	addi	a4,a4,-1
    31ec:	883e                	mv	a6,a5
    31ee:	854e                	mv	a0,s3
    31f0:	87b6                	mv	a5,a3
    31f2:	46a9                	li	a3,10
    31f4:	ba9ff0ef          	jal	ra,2d9c <printDouble>
    31f8:	bfb1                	j	3154 <print+0x2b2>

000031fa <printf>:
    31fa:	7139                	addi	sp,sp,-64
    31fc:	d22e                	sw	a1,36(sp)
    31fe:	d432                	sw	a2,40(sp)
    3200:	85aa                	mv	a1,a0
    3202:	1050                	addi	a2,sp,36
    3204:	4501                	li	a0,0
    3206:	ce06                	sw	ra,28(sp)
    3208:	d636                	sw	a3,44(sp)
    320a:	d83a                	sw	a4,48(sp)
    320c:	da3e                	sw	a5,52(sp)
    320e:	dc42                	sw	a6,56(sp)
    3210:	de46                	sw	a7,60(sp)
    3212:	c632                	sw	a2,12(sp)
    3214:	c8fff0ef          	jal	ra,2ea2 <print>
    3218:	40f2                	lw	ra,28(sp)
    321a:	6121                	addi	sp,sp,64
    321c:	8082                	ret

0000321e <__udivdi3>:
    321e:	87b6                	mv	a5,a3
    3220:	88b2                	mv	a7,a2
    3222:	832a                	mv	t1,a0
    3224:	882e                	mv	a6,a1
    3226:	14069b63          	bnez	a3,337c <__udivdi3+0x15e>
    322a:	0ac5f863          	bgeu	a1,a2,32da <__udivdi3+0xbc>
    322e:	6741                	lui	a4,0x10
    3230:	1ae66b63          	bltu	a2,a4,33e6 <__udivdi3+0x1c8>
    3234:	010007b7          	lui	a5,0x1000
    3238:	34f66063          	bltu	a2,a5,3578 <__udivdi3+0x35a>
    323c:	01865693          	srli	a3,a2,0x18
    3240:	47e1                	li	a5,24
    3242:	00003717          	auipc	a4,0x3
    3246:	12270713          	addi	a4,a4,290 # 6364 <__clz_tab>
    324a:	9736                	add	a4,a4,a3
    324c:	2318                	lbu	a4,0(a4)
    324e:	97ba                	add	a5,a5,a4
    3250:	02000713          	li	a4,32
    3254:	8f1d                	sub	a4,a4,a5
    3256:	cb19                	beqz	a4,326c <__udivdi3+0x4e>
    3258:	00e59833          	sll	a6,a1,a4
    325c:	00f557b3          	srl	a5,a0,a5
    3260:	00e618b3          	sll	a7,a2,a4
    3264:	0107e833          	or	a6,a5,a6
    3268:	00e51333          	sll	t1,a0,a4
    326c:	0108d613          	srli	a2,a7,0x10
    3270:	02c85533          	divu	a0,a6,a2
    3274:	01089693          	slli	a3,a7,0x10
    3278:	82c1                	srli	a3,a3,0x10
    327a:	01035793          	srli	a5,t1,0x10
    327e:	02c87733          	remu	a4,a6,a2
    3282:	02a685b3          	mul	a1,a3,a0
    3286:	0742                	slli	a4,a4,0x10
    3288:	00f76833          	or	a6,a4,a5
    328c:	00b87a63          	bgeu	a6,a1,32a0 <__udivdi3+0x82>
    3290:	9846                	add	a6,a6,a7
    3292:	fff50793          	addi	a5,a0,-1
    3296:	01186463          	bltu	a6,a7,329e <__udivdi3+0x80>
    329a:	30b86563          	bltu	a6,a1,35a4 <__udivdi3+0x386>
    329e:	853e                	mv	a0,a5
    32a0:	40b80833          	sub	a6,a6,a1
    32a4:	02c85733          	divu	a4,a6,a2
    32a8:	0342                	slli	t1,t1,0x10
    32aa:	01035313          	srli	t1,t1,0x10
    32ae:	02c87833          	remu	a6,a6,a2
    32b2:	02e686b3          	mul	a3,a3,a4
    32b6:	0842                	slli	a6,a6,0x10
    32b8:	00686833          	or	a6,a6,t1
    32bc:	00d87b63          	bgeu	a6,a3,32d2 <__udivdi3+0xb4>
    32c0:	9846                	add	a6,a6,a7
    32c2:	fff70793          	addi	a5,a4,-1
    32c6:	01186563          	bltu	a6,a7,32d0 <__udivdi3+0xb2>
    32ca:	1779                	addi	a4,a4,-2
    32cc:	00d86363          	bltu	a6,a3,32d2 <__udivdi3+0xb4>
    32d0:	873e                	mv	a4,a5
    32d2:	0542                	slli	a0,a0,0x10
    32d4:	8d59                	or	a0,a0,a4
    32d6:	4581                	li	a1,0
    32d8:	8082                	ret
    32da:	e601                	bnez	a2,32e2 <__udivdi3+0xc4>
    32dc:	4705                	li	a4,1
    32de:	02c758b3          	divu	a7,a4,a2
    32e2:	6741                	lui	a4,0x10
    32e4:	0ee8e863          	bltu	a7,a4,33d4 <__udivdi3+0x1b6>
    32e8:	010007b7          	lui	a5,0x1000
    32ec:	28f8ea63          	bltu	a7,a5,3580 <__udivdi3+0x362>
    32f0:	0188d693          	srli	a3,a7,0x18
    32f4:	47e1                	li	a5,24
    32f6:	00003717          	auipc	a4,0x3
    32fa:	06e70713          	addi	a4,a4,110 # 6364 <__clz_tab>
    32fe:	9736                	add	a4,a4,a3
    3300:	2314                	lbu	a3,0(a4)
    3302:	96be                	add	a3,a3,a5
    3304:	02000793          	li	a5,32
    3308:	8f95                	sub	a5,a5,a3
    330a:	e7fd                	bnez	a5,33f8 <__udivdi3+0x1da>
    330c:	01089e93          	slli	t4,a7,0x10
    3310:	41158733          	sub	a4,a1,a7
    3314:	0108df13          	srli	t5,a7,0x10
    3318:	010ede93          	srli	t4,t4,0x10
    331c:	4585                	li	a1,1
    331e:	01035793          	srli	a5,t1,0x10
    3322:	03e75533          	divu	a0,a4,t5
    3326:	03e77733          	remu	a4,a4,t5
    332a:	03d506b3          	mul	a3,a0,t4
    332e:	0742                	slli	a4,a4,0x10
    3330:	8fd9                	or	a5,a5,a4
    3332:	00d7fa63          	bgeu	a5,a3,3346 <__udivdi3+0x128>
    3336:	97c6                	add	a5,a5,a7
    3338:	fff50713          	addi	a4,a0,-1
    333c:	0117e463          	bltu	a5,a7,3344 <__udivdi3+0x126>
    3340:	26d7e563          	bltu	a5,a3,35aa <__udivdi3+0x38c>
    3344:	853a                	mv	a0,a4
    3346:	8f95                	sub	a5,a5,a3
    3348:	03e7d733          	divu	a4,a5,t5
    334c:	0342                	slli	t1,t1,0x10
    334e:	01035313          	srli	t1,t1,0x10
    3352:	03e7f7b3          	remu	a5,a5,t5
    3356:	03d70eb3          	mul	t4,a4,t4
    335a:	07c2                	slli	a5,a5,0x10
    335c:	0067e7b3          	or	a5,a5,t1
    3360:	01d7fb63          	bgeu	a5,t4,3376 <__udivdi3+0x158>
    3364:	97c6                	add	a5,a5,a7
    3366:	fff70693          	addi	a3,a4,-1
    336a:	0117e563          	bltu	a5,a7,3374 <__udivdi3+0x156>
    336e:	1779                	addi	a4,a4,-2
    3370:	01d7e363          	bltu	a5,t4,3376 <__udivdi3+0x158>
    3374:	8736                	mv	a4,a3
    3376:	0542                	slli	a0,a0,0x10
    3378:	8d59                	or	a0,a0,a4
    337a:	8082                	ret
    337c:	04d5e163          	bltu	a1,a3,33be <__udivdi3+0x1a0>
    3380:	67c1                	lui	a5,0x10
    3382:	04f6e163          	bltu	a3,a5,33c4 <__udivdi3+0x1a6>
    3386:	010007b7          	lui	a5,0x1000
    338a:	1ef6e363          	bltu	a3,a5,3570 <__udivdi3+0x352>
    338e:	0186d713          	srli	a4,a3,0x18
    3392:	4861                	li	a6,24
    3394:	00003797          	auipc	a5,0x3
    3398:	fd078793          	addi	a5,a5,-48 # 6364 <__clz_tab>
    339c:	97ba                	add	a5,a5,a4
    339e:	2398                	lbu	a4,0(a5)
    33a0:	02000e13          	li	t3,32
    33a4:	9742                	add	a4,a4,a6
    33a6:	40ee0e33          	sub	t3,t3,a4
    33aa:	0c0e1a63          	bnez	t3,347e <__udivdi3+0x260>
    33ae:	1cb6ed63          	bltu	a3,a1,3588 <__udivdi3+0x36a>
    33b2:	00c53533          	sltu	a0,a0,a2
    33b6:	00154513          	xori	a0,a0,1
    33ba:	4581                	li	a1,0
    33bc:	8082                	ret
    33be:	4581                	li	a1,0
    33c0:	4501                	li	a0,0
    33c2:	8082                	ret
    33c4:	0ff00793          	li	a5,255
    33c8:	1cd7f363          	bgeu	a5,a3,358e <__udivdi3+0x370>
    33cc:	0086d713          	srli	a4,a3,0x8
    33d0:	4821                	li	a6,8
    33d2:	b7c9                	j	3394 <__udivdi3+0x176>
    33d4:	0ff00713          	li	a4,255
    33d8:	86c6                	mv	a3,a7
    33da:	f1177ee3          	bgeu	a4,a7,32f6 <__udivdi3+0xd8>
    33de:	0088d693          	srli	a3,a7,0x8
    33e2:	47a1                	li	a5,8
    33e4:	bf09                	j	32f6 <__udivdi3+0xd8>
    33e6:	0ff00713          	li	a4,255
    33ea:	86b2                	mv	a3,a2
    33ec:	e4c77be3          	bgeu	a4,a2,3242 <__udivdi3+0x24>
    33f0:	00865693          	srli	a3,a2,0x8
    33f4:	47a1                	li	a5,8
    33f6:	b5b1                	j	3242 <__udivdi3+0x24>
    33f8:	00f898b3          	sll	a7,a7,a5
    33fc:	00d5d633          	srl	a2,a1,a3
    3400:	0108df13          	srli	t5,a7,0x10
    3404:	03e65e33          	divu	t3,a2,t5
    3408:	00f59733          	sll	a4,a1,a5
    340c:	00d556b3          	srl	a3,a0,a3
    3410:	8f55                	or	a4,a4,a3
    3412:	01089e93          	slli	t4,a7,0x10
    3416:	010ede93          	srli	t4,t4,0x10
    341a:	00f51333          	sll	t1,a0,a5
    341e:	01075593          	srli	a1,a4,0x10
    3422:	03e676b3          	remu	a3,a2,t5
    3426:	03ce87b3          	mul	a5,t4,t3
    342a:	06c2                	slli	a3,a3,0x10
    342c:	8ecd                	or	a3,a3,a1
    342e:	00f6fb63          	bgeu	a3,a5,3444 <__udivdi3+0x226>
    3432:	96c6                	add	a3,a3,a7
    3434:	fffe0613          	addi	a2,t3,-1
    3438:	1716e463          	bltu	a3,a7,35a0 <__udivdi3+0x382>
    343c:	16f6f263          	bgeu	a3,a5,35a0 <__udivdi3+0x382>
    3440:	1e79                	addi	t3,t3,-2
    3442:	96c6                	add	a3,a3,a7
    3444:	8e9d                	sub	a3,a3,a5
    3446:	03e6d633          	divu	a2,a3,t5
    344a:	01071793          	slli	a5,a4,0x10
    344e:	83c1                	srli	a5,a5,0x10
    3450:	03e6f6b3          	remu	a3,a3,t5
    3454:	02ce8533          	mul	a0,t4,a2
    3458:	01069713          	slli	a4,a3,0x10
    345c:	8f5d                	or	a4,a4,a5
    345e:	00a77b63          	bgeu	a4,a0,3474 <__udivdi3+0x256>
    3462:	9746                	add	a4,a4,a7
    3464:	fff60793          	addi	a5,a2,-1
    3468:	13176863          	bltu	a4,a7,3598 <__udivdi3+0x37a>
    346c:	12a77663          	bgeu	a4,a0,3598 <__udivdi3+0x37a>
    3470:	1679                	addi	a2,a2,-2
    3472:	9746                	add	a4,a4,a7
    3474:	010e1593          	slli	a1,t3,0x10
    3478:	8f09                	sub	a4,a4,a0
    347a:	8dd1                	or	a1,a1,a2
    347c:	b54d                	j	331e <__udivdi3+0x100>
    347e:	00e657b3          	srl	a5,a2,a4
    3482:	01c696b3          	sll	a3,a3,t3
    3486:	8edd                	or	a3,a3,a5
    3488:	00e5d333          	srl	t1,a1,a4
    348c:	0106df13          	srli	t5,a3,0x10
    3490:	03e357b3          	divu	a5,t1,t5
    3494:	01069e93          	slli	t4,a3,0x10
    3498:	010ede93          	srli	t4,t4,0x10
    349c:	01c59833          	sll	a6,a1,t3
    34a0:	00e55733          	srl	a4,a0,a4
    34a4:	01076833          	or	a6,a4,a6
    34a8:	01085893          	srli	a7,a6,0x10
    34ac:	01c61633          	sll	a2,a2,t3
    34b0:	03e37333          	remu	t1,t1,t5
    34b4:	02fe85b3          	mul	a1,t4,a5
    34b8:	0342                	slli	t1,t1,0x10
    34ba:	011368b3          	or	a7,t1,a7
    34be:	00b8fb63          	bgeu	a7,a1,34d4 <__udivdi3+0x2b6>
    34c2:	98b6                	add	a7,a7,a3
    34c4:	fff78713          	addi	a4,a5,-1
    34c8:	0cd8ea63          	bltu	a7,a3,359c <__udivdi3+0x37e>
    34cc:	0cb8f863          	bgeu	a7,a1,359c <__udivdi3+0x37e>
    34d0:	17f9                	addi	a5,a5,-2
    34d2:	98b6                	add	a7,a7,a3
    34d4:	40b888b3          	sub	a7,a7,a1
    34d8:	03e8d733          	divu	a4,a7,t5
    34dc:	0842                	slli	a6,a6,0x10
    34de:	01085813          	srli	a6,a6,0x10
    34e2:	03e8f8b3          	remu	a7,a7,t5
    34e6:	02ee8333          	mul	t1,t4,a4
    34ea:	08c2                	slli	a7,a7,0x10
    34ec:	0108e5b3          	or	a1,a7,a6
    34f0:	0065fb63          	bgeu	a1,t1,3506 <__udivdi3+0x2e8>
    34f4:	95b6                	add	a1,a1,a3
    34f6:	fff70813          	addi	a6,a4,-1
    34fa:	08d5ed63          	bltu	a1,a3,3594 <__udivdi3+0x376>
    34fe:	0865fb63          	bgeu	a1,t1,3594 <__udivdi3+0x376>
    3502:	1779                	addi	a4,a4,-2
    3504:	95b6                	add	a1,a1,a3
    3506:	07c2                	slli	a5,a5,0x10
    3508:	6f41                	lui	t5,0x10
    350a:	8fd9                	or	a5,a5,a4
    350c:	ffff0713          	addi	a4,t5,-1 # ffff <_data_lma+0x9b3b>
    3510:	00e7f6b3          	and	a3,a5,a4
    3514:	0107d893          	srli	a7,a5,0x10
    3518:	8f71                	and	a4,a4,a2
    351a:	8241                	srli	a2,a2,0x10
    351c:	02e68eb3          	mul	t4,a3,a4
    3520:	406585b3          	sub	a1,a1,t1
    3524:	02c686b3          	mul	a3,a3,a2
    3528:	010ed813          	srli	a6,t4,0x10
    352c:	02e88733          	mul	a4,a7,a4
    3530:	96ba                	add	a3,a3,a4
    3532:	96c2                	add	a3,a3,a6
    3534:	02c88633          	mul	a2,a7,a2
    3538:	00e6f363          	bgeu	a3,a4,353e <__udivdi3+0x320>
    353c:	967a                	add	a2,a2,t5
    353e:	0106d893          	srli	a7,a3,0x10
    3542:	9646                	add	a2,a2,a7
    3544:	02c5e263          	bltu	a1,a2,3568 <__udivdi3+0x34a>
    3548:	00c58563          	beq	a1,a2,3552 <__udivdi3+0x334>
    354c:	853e                	mv	a0,a5
    354e:	4581                	li	a1,0
    3550:	8082                	ret
    3552:	6741                	lui	a4,0x10
    3554:	177d                	addi	a4,a4,-1
    3556:	8ef9                	and	a3,a3,a4
    3558:	06c2                	slli	a3,a3,0x10
    355a:	00eefeb3          	and	t4,t4,a4
    355e:	01c51533          	sll	a0,a0,t3
    3562:	96f6                	add	a3,a3,t4
    3564:	fed574e3          	bgeu	a0,a3,354c <__udivdi3+0x32e>
    3568:	fff78513          	addi	a0,a5,-1
    356c:	4581                	li	a1,0
    356e:	8082                	ret
    3570:	0106d713          	srli	a4,a3,0x10
    3574:	4841                	li	a6,16
    3576:	bd39                	j	3394 <__udivdi3+0x176>
    3578:	01065693          	srli	a3,a2,0x10
    357c:	47c1                	li	a5,16
    357e:	b1d1                	j	3242 <__udivdi3+0x24>
    3580:	0108d693          	srli	a3,a7,0x10
    3584:	47c1                	li	a5,16
    3586:	bb85                	j	32f6 <__udivdi3+0xd8>
    3588:	4581                	li	a1,0
    358a:	4505                	li	a0,1
    358c:	8082                	ret
    358e:	8736                	mv	a4,a3
    3590:	4801                	li	a6,0
    3592:	b509                	j	3394 <__udivdi3+0x176>
    3594:	8742                	mv	a4,a6
    3596:	bf85                	j	3506 <__udivdi3+0x2e8>
    3598:	863e                	mv	a2,a5
    359a:	bde9                	j	3474 <__udivdi3+0x256>
    359c:	87ba                	mv	a5,a4
    359e:	bf1d                	j	34d4 <__udivdi3+0x2b6>
    35a0:	8e32                	mv	t3,a2
    35a2:	b54d                	j	3444 <__udivdi3+0x226>
    35a4:	1579                	addi	a0,a0,-2
    35a6:	9846                	add	a6,a6,a7
    35a8:	b9e5                	j	32a0 <__udivdi3+0x82>
    35aa:	1579                	addi	a0,a0,-2
    35ac:	97c6                	add	a5,a5,a7
    35ae:	bb61                	j	3346 <__udivdi3+0x128>

000035b0 <__umoddi3>:
    35b0:	87b6                	mv	a5,a3
    35b2:	8832                	mv	a6,a2
    35b4:	832a                	mv	t1,a0
    35b6:	872e                	mv	a4,a1
    35b8:	8e2e                	mv	t3,a1
    35ba:	14069163          	bnez	a3,36fc <__umoddi3+0x14c>
    35be:	0ac5f063          	bgeu	a1,a2,365e <__umoddi3+0xae>
    35c2:	6741                	lui	a4,0x10
    35c4:	1ae67663          	bgeu	a2,a4,3770 <__umoddi3+0x1c0>
    35c8:	0ff00713          	li	a4,255
    35cc:	86b2                	mv	a3,a2
    35ce:	00c77563          	bgeu	a4,a2,35d8 <__umoddi3+0x28>
    35d2:	00865693          	srli	a3,a2,0x8
    35d6:	47a1                	li	a5,8
    35d8:	00003717          	auipc	a4,0x3
    35dc:	d8c70713          	addi	a4,a4,-628 # 6364 <__clz_tab>
    35e0:	9736                	add	a4,a4,a3
    35e2:	2318                	lbu	a4,0(a4)
    35e4:	02000893          	li	a7,32
    35e8:	97ba                	add	a5,a5,a4
    35ea:	40f888b3          	sub	a7,a7,a5
    35ee:	00088c63          	beqz	a7,3606 <__umoddi3+0x56>
    35f2:	011595b3          	sll	a1,a1,a7
    35f6:	00f557b3          	srl	a5,a0,a5
    35fa:	01161833          	sll	a6,a2,a7
    35fe:	00b7ee33          	or	t3,a5,a1
    3602:	01151333          	sll	t1,a0,a7
    3606:	01085613          	srli	a2,a6,0x10
    360a:	02ce57b3          	divu	a5,t3,a2
    360e:	01081513          	slli	a0,a6,0x10
    3612:	8141                	srli	a0,a0,0x10
    3614:	01035693          	srli	a3,t1,0x10
    3618:	02ce7e33          	remu	t3,t3,a2
    361c:	02f507b3          	mul	a5,a0,a5
    3620:	0e42                	slli	t3,t3,0x10
    3622:	00de6733          	or	a4,t3,a3
    3626:	00f77863          	bgeu	a4,a5,3636 <__umoddi3+0x86>
    362a:	9742                	add	a4,a4,a6
    362c:	01076563          	bltu	a4,a6,3636 <__umoddi3+0x86>
    3630:	00f77363          	bgeu	a4,a5,3636 <__umoddi3+0x86>
    3634:	9742                	add	a4,a4,a6
    3636:	8f1d                	sub	a4,a4,a5
    3638:	02c756b3          	divu	a3,a4,a2
    363c:	01031793          	slli	a5,t1,0x10
    3640:	83c1                	srli	a5,a5,0x10
    3642:	02c77733          	remu	a4,a4,a2
    3646:	02d50533          	mul	a0,a0,a3
    364a:	0742                	slli	a4,a4,0x10
    364c:	8fd9                	or	a5,a5,a4
    364e:	08a7eb63          	bltu	a5,a0,36e4 <__umoddi3+0x134>
    3652:	40a78533          	sub	a0,a5,a0
    3656:	01155533          	srl	a0,a0,a7
    365a:	4581                	li	a1,0
    365c:	8082                	ret
    365e:	e601                	bnez	a2,3666 <__umoddi3+0xb6>
    3660:	4705                	li	a4,1
    3662:	02c75833          	divu	a6,a4,a2
    3666:	6741                	lui	a4,0x10
    3668:	0ee86b63          	bltu	a6,a4,375e <__umoddi3+0x1ae>
    366c:	010007b7          	lui	a5,0x1000
    3670:	2af86463          	bltu	a6,a5,3918 <__umoddi3+0x368>
    3674:	01885693          	srli	a3,a6,0x18
    3678:	47e1                	li	a5,24
    367a:	00003717          	auipc	a4,0x3
    367e:	cea70713          	addi	a4,a4,-790 # 6364 <__clz_tab>
    3682:	9736                	add	a4,a4,a3
    3684:	2318                	lbu	a4,0(a4)
    3686:	02000893          	li	a7,32
    368a:	97ba                	add	a5,a5,a4
    368c:	40f888b3          	sub	a7,a7,a5
    3690:	1e089a63          	bnez	a7,3884 <__umoddi3+0x2d4>
    3694:	01081e13          	slli	t3,a6,0x10
    3698:	410585b3          	sub	a1,a1,a6
    369c:	01085613          	srli	a2,a6,0x10
    36a0:	010e5e13          	srli	t3,t3,0x10
    36a4:	01035713          	srli	a4,t1,0x10
    36a8:	02c5d6b3          	divu	a3,a1,a2
    36ac:	02c5f5b3          	remu	a1,a1,a2
    36b0:	03c686b3          	mul	a3,a3,t3
    36b4:	05c2                	slli	a1,a1,0x10
    36b6:	8f4d                	or	a4,a4,a1
    36b8:	00d77763          	bgeu	a4,a3,36c6 <__umoddi3+0x116>
    36bc:	9742                	add	a4,a4,a6
    36be:	01076463          	bltu	a4,a6,36c6 <__umoddi3+0x116>
    36c2:	26d76a63          	bltu	a4,a3,3936 <__umoddi3+0x386>
    36c6:	8f15                	sub	a4,a4,a3
    36c8:	02c75533          	divu	a0,a4,a2
    36cc:	0342                	slli	t1,t1,0x10
    36ce:	01035313          	srli	t1,t1,0x10
    36d2:	02c77733          	remu	a4,a4,a2
    36d6:	03c50533          	mul	a0,a0,t3
    36da:	0742                	slli	a4,a4,0x10
    36dc:	006767b3          	or	a5,a4,t1
    36e0:	00a7f863          	bgeu	a5,a0,36f0 <__umoddi3+0x140>
    36e4:	97c2                	add	a5,a5,a6
    36e6:	0107e563          	bltu	a5,a6,36f0 <__umoddi3+0x140>
    36ea:	00a7f363          	bgeu	a5,a0,36f0 <__umoddi3+0x140>
    36ee:	97c2                	add	a5,a5,a6
    36f0:	40a78533          	sub	a0,a5,a0
    36f4:	01155533          	srl	a0,a0,a7
    36f8:	4581                	li	a1,0
    36fa:	8082                	ret
    36fc:	882a                	mv	a6,a0
    36fe:	f4d5efe3          	bltu	a1,a3,365c <__umoddi3+0xac>
    3702:	67c1                	lui	a5,0x10
    3704:	04f6e563          	bltu	a3,a5,374e <__umoddi3+0x19e>
    3708:	010007b7          	lui	a5,0x1000
    370c:	20f6e263          	bltu	a3,a5,3910 <__umoddi3+0x360>
    3710:	0186d313          	srli	t1,a3,0x18
    3714:	48e1                	li	a7,24
    3716:	00003797          	auipc	a5,0x3
    371a:	c4e78793          	addi	a5,a5,-946 # 6364 <__clz_tab>
    371e:	979a                	add	a5,a5,t1
    3720:	0007ce03          	lbu	t3,0(a5)
    3724:	02000313          	li	t1,32
    3728:	9e46                	add	t3,t3,a7
    372a:	41c30333          	sub	t1,t1,t3
    372e:	04031963          	bnez	t1,3780 <__umoddi3+0x1d0>
    3732:	00b6e463          	bltu	a3,a1,373a <__umoddi3+0x18a>
    3736:	00c56963          	bltu	a0,a2,3748 <__umoddi3+0x198>
    373a:	40c50833          	sub	a6,a0,a2
    373e:	8d95                	sub	a1,a1,a3
    3740:	01053733          	sltu	a4,a0,a6
    3744:	40e58733          	sub	a4,a1,a4
    3748:	8542                	mv	a0,a6
    374a:	85ba                	mv	a1,a4
    374c:	8082                	ret
    374e:	0ff00793          	li	a5,255
    3752:	1cd7fb63          	bgeu	a5,a3,3928 <__umoddi3+0x378>
    3756:	0086d313          	srli	t1,a3,0x8
    375a:	48a1                	li	a7,8
    375c:	bf6d                	j	3716 <__umoddi3+0x166>
    375e:	0ff00713          	li	a4,255
    3762:	86c2                	mv	a3,a6
    3764:	f1077be3          	bgeu	a4,a6,367a <__umoddi3+0xca>
    3768:	00885693          	srli	a3,a6,0x8
    376c:	47a1                	li	a5,8
    376e:	b731                	j	367a <__umoddi3+0xca>
    3770:	010007b7          	lui	a5,0x1000
    3774:	1af66663          	bltu	a2,a5,3920 <__umoddi3+0x370>
    3778:	01865693          	srli	a3,a2,0x18
    377c:	47e1                	li	a5,24
    377e:	bda9                	j	35d8 <__umoddi3+0x28>
    3780:	01c657b3          	srl	a5,a2,t3
    3784:	006696b3          	sll	a3,a3,t1
    3788:	8edd                	or	a3,a3,a5
    378a:	01c5d8b3          	srl	a7,a1,t3
    378e:	0106d713          	srli	a4,a3,0x10
    3792:	02e8deb3          	divu	t4,a7,a4
    3796:	01069f13          	slli	t5,a3,0x10
    379a:	01c557b3          	srl	a5,a0,t3
    379e:	010f5f13          	srli	t5,t5,0x10
    37a2:	006595b3          	sll	a1,a1,t1
    37a6:	8ddd                	or	a1,a1,a5
    37a8:	0105d813          	srli	a6,a1,0x10
    37ac:	00661633          	sll	a2,a2,t1
    37b0:	00651533          	sll	a0,a0,t1
    37b4:	02e8f8b3          	remu	a7,a7,a4
    37b8:	03df07b3          	mul	a5,t5,t4
    37bc:	08c2                	slli	a7,a7,0x10
    37be:	0108e833          	or	a6,a7,a6
    37c2:	00f87b63          	bgeu	a6,a5,37d8 <__umoddi3+0x228>
    37c6:	9836                	add	a6,a6,a3
    37c8:	fffe8893          	addi	a7,t4,-1
    37cc:	16d86363          	bltu	a6,a3,3932 <__umoddi3+0x382>
    37d0:	16f87163          	bgeu	a6,a5,3932 <__umoddi3+0x382>
    37d4:	1ef9                	addi	t4,t4,-2
    37d6:	9836                	add	a6,a6,a3
    37d8:	40f80833          	sub	a6,a6,a5
    37dc:	02e857b3          	divu	a5,a6,a4
    37e0:	05c2                	slli	a1,a1,0x10
    37e2:	81c1                	srli	a1,a1,0x10
    37e4:	02e87833          	remu	a6,a6,a4
    37e8:	02ff0f33          	mul	t5,t5,a5
    37ec:	01081713          	slli	a4,a6,0x10
    37f0:	8f4d                	or	a4,a4,a1
    37f2:	01e77b63          	bgeu	a4,t5,3808 <__umoddi3+0x258>
    37f6:	9736                	add	a4,a4,a3
    37f8:	fff78593          	addi	a1,a5,-1 # ffffff <_data_lma+0xff9b3b>
    37fc:	12d76963          	bltu	a4,a3,392e <__umoddi3+0x37e>
    3800:	13e77763          	bgeu	a4,t5,392e <__umoddi3+0x37e>
    3804:	17f9                	addi	a5,a5,-2
    3806:	9736                	add	a4,a4,a3
    3808:	0ec2                	slli	t4,t4,0x10
    380a:	62c1                	lui	t0,0x10
    380c:	00feeeb3          	or	t4,t4,a5
    3810:	fff28813          	addi	a6,t0,-1 # ffff <_data_lma+0x9b3b>
    3814:	010ef8b3          	and	a7,t4,a6
    3818:	01065593          	srli	a1,a2,0x10
    381c:	010ede93          	srli	t4,t4,0x10
    3820:	01067833          	and	a6,a2,a6
    3824:	03088fb3          	mul	t6,a7,a6
    3828:	41e70733          	sub	a4,a4,t5
    382c:	030e8833          	mul	a6,t4,a6
    3830:	010fd793          	srli	a5,t6,0x10
    3834:	02b888b3          	mul	a7,a7,a1
    3838:	98c2                	add	a7,a7,a6
    383a:	97c6                	add	a5,a5,a7
    383c:	02be8eb3          	mul	t4,t4,a1
    3840:	0107f363          	bgeu	a5,a6,3846 <__umoddi3+0x296>
    3844:	9e96                	add	t4,t4,t0
    3846:	6841                	lui	a6,0x10
    3848:	187d                	addi	a6,a6,-1
    384a:	0107d593          	srli	a1,a5,0x10
    384e:	0107f7b3          	and	a5,a5,a6
    3852:	07c2                	slli	a5,a5,0x10
    3854:	010fffb3          	and	t6,t6,a6
    3858:	95f6                	add	a1,a1,t4
    385a:	97fe                	add	a5,a5,t6
    385c:	0ab76263          	bltu	a4,a1,3900 <__umoddi3+0x350>
    3860:	08b70e63          	beq	a4,a1,38fc <__umoddi3+0x34c>
    3864:	40f507b3          	sub	a5,a0,a5
    3868:	00f53533          	sltu	a0,a0,a5
    386c:	40b705b3          	sub	a1,a4,a1
    3870:	8d89                	sub	a1,a1,a0
    3872:	01c59e33          	sll	t3,a1,t3
    3876:	0067d533          	srl	a0,a5,t1
    387a:	00ae6533          	or	a0,t3,a0
    387e:	0065d5b3          	srl	a1,a1,t1
    3882:	8082                	ret
    3884:	01181833          	sll	a6,a6,a7
    3888:	00f5d733          	srl	a4,a1,a5
    388c:	01085613          	srli	a2,a6,0x10
    3890:	02c756b3          	divu	a3,a4,a2
    3894:	01081e13          	slli	t3,a6,0x10
    3898:	00f557b3          	srl	a5,a0,a5
    389c:	010e5e13          	srli	t3,t3,0x10
    38a0:	011595b3          	sll	a1,a1,a7
    38a4:	8ddd                	or	a1,a1,a5
    38a6:	0105de93          	srli	t4,a1,0x10
    38aa:	01151333          	sll	t1,a0,a7
    38ae:	02c77733          	remu	a4,a4,a2
    38b2:	02de07b3          	mul	a5,t3,a3
    38b6:	01071693          	slli	a3,a4,0x10
    38ba:	01d6e6b3          	or	a3,a3,t4
    38be:	00f6f863          	bgeu	a3,a5,38ce <__umoddi3+0x31e>
    38c2:	96c2                	add	a3,a3,a6
    38c4:	0106e563          	bltu	a3,a6,38ce <__umoddi3+0x31e>
    38c8:	00f6f363          	bgeu	a3,a5,38ce <__umoddi3+0x31e>
    38cc:	96c2                	add	a3,a3,a6
    38ce:	8e9d                	sub	a3,a3,a5
    38d0:	02c6d733          	divu	a4,a3,a2
    38d4:	01059793          	slli	a5,a1,0x10
    38d8:	83c1                	srli	a5,a5,0x10
    38da:	02c6f6b3          	remu	a3,a3,a2
    38de:	02ee0733          	mul	a4,t3,a4
    38e2:	01069593          	slli	a1,a3,0x10
    38e6:	8ddd                	or	a1,a1,a5
    38e8:	00e5f863          	bgeu	a1,a4,38f8 <__umoddi3+0x348>
    38ec:	95c2                	add	a1,a1,a6
    38ee:	0105e563          	bltu	a1,a6,38f8 <__umoddi3+0x348>
    38f2:	00e5f363          	bgeu	a1,a4,38f8 <__umoddi3+0x348>
    38f6:	95c2                	add	a1,a1,a6
    38f8:	8d99                	sub	a1,a1,a4
    38fa:	b36d                	j	36a4 <__umoddi3+0xf4>
    38fc:	f6f574e3          	bgeu	a0,a5,3864 <__umoddi3+0x2b4>
    3900:	40c78633          	sub	a2,a5,a2
    3904:	00c7b7b3          	sltu	a5,a5,a2
    3908:	97b6                	add	a5,a5,a3
    390a:	8d9d                	sub	a1,a1,a5
    390c:	87b2                	mv	a5,a2
    390e:	bf99                	j	3864 <__umoddi3+0x2b4>
    3910:	0106d313          	srli	t1,a3,0x10
    3914:	48c1                	li	a7,16
    3916:	b501                	j	3716 <__umoddi3+0x166>
    3918:	01085693          	srli	a3,a6,0x10
    391c:	47c1                	li	a5,16
    391e:	bbb1                	j	367a <__umoddi3+0xca>
    3920:	01065693          	srli	a3,a2,0x10
    3924:	47c1                	li	a5,16
    3926:	b94d                	j	35d8 <__umoddi3+0x28>
    3928:	8336                	mv	t1,a3
    392a:	4881                	li	a7,0
    392c:	b3ed                	j	3716 <__umoddi3+0x166>
    392e:	87ae                	mv	a5,a1
    3930:	bde1                	j	3808 <__umoddi3+0x258>
    3932:	8ec6                	mv	t4,a7
    3934:	b555                	j	37d8 <__umoddi3+0x228>
    3936:	9742                	add	a4,a4,a6
    3938:	b379                	j	36c6 <__umoddi3+0x116>

0000393a <__ledf2>:
    393a:	002027f3          	frrm	a5
    393e:	001007b7          	lui	a5,0x100
    3942:	0145d713          	srli	a4,a1,0x14
    3946:	17fd                	addi	a5,a5,-1
    3948:	0146d813          	srli	a6,a3,0x14
    394c:	7ff77713          	andi	a4,a4,2047
    3950:	7ff00893          	li	a7,2047
    3954:	00b7f333          	and	t1,a5,a1
    3958:	8e2a                	mv	t3,a0
    395a:	8ff5                	and	a5,a5,a3
    395c:	81fd                	srli	a1,a1,0x1f
    395e:	8eb2                	mv	t4,a2
    3960:	7ff87813          	andi	a6,a6,2047
    3964:	82fd                	srli	a3,a3,0x1f
    3966:	03170f63          	beq	a4,a7,39a4 <__ledf2+0x6a>
    396a:	01180d63          	beq	a6,a7,3984 <__ledf2+0x4a>
    396e:	e321                	bnez	a4,39ae <__ledf2+0x74>
    3970:	00a368b3          	or	a7,t1,a0
    3974:	02081063          	bnez	a6,3994 <__ledf2+0x5a>
    3978:	8e5d                	or	a2,a2,a5
    397a:	ee09                	bnez	a2,3994 <__ledf2+0x5a>
    397c:	4501                	li	a0,0
    397e:	00089f63          	bnez	a7,399c <__ledf2+0x62>
    3982:	8082                	ret
    3984:	00c7e8b3          	or	a7,a5,a2
    3988:	fe0883e3          	beqz	a7,396e <__ledf2+0x34>
    398c:	00186073          	csrsi	fflags,16
    3990:	4509                	li	a0,2
    3992:	8082                	ret
    3994:	02088f63          	beqz	a7,39d2 <__ledf2+0x98>
    3998:	02d58363          	beq	a1,a3,39be <__ledf2+0x84>
    399c:	4505                	li	a0,1
    399e:	d1f5                	beqz	a1,3982 <__ledf2+0x48>
    39a0:	557d                	li	a0,-1
    39a2:	8082                	ret
    39a4:	00a36533          	or	a0,t1,a0
    39a8:	f175                	bnez	a0,398c <__ledf2+0x52>
    39aa:	02e80763          	beq	a6,a4,39d8 <__ledf2+0x9e>
    39ae:	00081463          	bnez	a6,39b6 <__ledf2+0x7c>
    39b2:	8e5d                	or	a2,a2,a5
    39b4:	d665                	beqz	a2,399c <__ledf2+0x62>
    39b6:	fed593e3          	bne	a1,a3,399c <__ledf2+0x62>
    39ba:	fee841e3          	blt	a6,a4,399c <__ledf2+0x62>
    39be:	01074863          	blt	a4,a6,39ce <__ledf2+0x94>
    39c2:	fc67ede3          	bltu	a5,t1,399c <__ledf2+0x62>
    39c6:	00f30e63          	beq	t1,a5,39e2 <__ledf2+0xa8>
    39ca:	00f37a63          	bgeu	t1,a5,39de <__ledf2+0xa4>
    39ce:	e199                	bnez	a1,39d4 <__ledf2+0x9a>
    39d0:	bfc1                	j	39a0 <__ledf2+0x66>
    39d2:	d6f9                	beqz	a3,39a0 <__ledf2+0x66>
    39d4:	4505                	li	a0,1
    39d6:	8082                	ret
    39d8:	8e5d                	or	a2,a2,a5
    39da:	de71                	beqz	a2,39b6 <__ledf2+0x7c>
    39dc:	bf45                	j	398c <__ledf2+0x52>
    39de:	4501                	li	a0,0
    39e0:	8082                	ret
    39e2:	fbceede3          	bltu	t4,t3,399c <__ledf2+0x62>
    39e6:	4501                	li	a0,0
    39e8:	f9de7de3          	bgeu	t3,t4,3982 <__ledf2+0x48>
    39ec:	f5e5                	bnez	a1,39d4 <__ledf2+0x9a>
    39ee:	bf4d                	j	39a0 <__ledf2+0x66>

000039f0 <__muldf3>:
    39f0:	7139                	addi	sp,sp,-64
    39f2:	d452                	sw	s4,40(sp)
    39f4:	de06                	sw	ra,60(sp)
    39f6:	dc22                	sw	s0,56(sp)
    39f8:	da26                	sw	s1,52(sp)
    39fa:	d84a                	sw	s2,48(sp)
    39fc:	d64e                	sw	s3,44(sp)
    39fe:	d256                	sw	s5,36(sp)
    3a00:	d05a                	sw	s6,32(sp)
    3a02:	ce5e                	sw	s7,28(sp)
    3a04:	cc62                	sw	s8,24(sp)
    3a06:	ca66                	sw	s9,20(sp)
    3a08:	8a2a                	mv	s4,a0
    3a0a:	00202b73          	frrm	s6
    3a0e:	0145d913          	srli	s2,a1,0x14
    3a12:	00c59993          	slli	s3,a1,0xc
    3a16:	7ff97913          	andi	s2,s2,2047
    3a1a:	00c9d993          	srli	s3,s3,0xc
    3a1e:	01f5db93          	srli	s7,a1,0x1f
    3a22:	12090e63          	beqz	s2,3b5e <__muldf3+0x16e>
    3a26:	7ff00793          	li	a5,2047
    3a2a:	16f90d63          	beq	s2,a5,3ba4 <__muldf3+0x1b4>
    3a2e:	01d55413          	srli	s0,a0,0x1d
    3a32:	098e                	slli	s3,s3,0x3
    3a34:	013469b3          	or	s3,s0,s3
    3a38:	00800437          	lui	s0,0x800
    3a3c:	0089e433          	or	s0,s3,s0
    3a40:	00351493          	slli	s1,a0,0x3
    3a44:	c0190913          	addi	s2,s2,-1023
    3a48:	4a01                	li	s4,0
    3a4a:	4c81                	li	s9,0
    3a4c:	4a81                	li	s5,0
    3a4e:	0146d793          	srli	a5,a3,0x14
    3a52:	00c69993          	slli	s3,a3,0xc
    3a56:	7ff7f793          	andi	a5,a5,2047
    3a5a:	85b2                	mv	a1,a2
    3a5c:	00c9d993          	srli	s3,s3,0xc
    3a60:	01f6dc13          	srli	s8,a3,0x1f
    3a64:	cfd5                	beqz	a5,3b20 <__muldf3+0x130>
    3a66:	7ff00713          	li	a4,2047
    3a6a:	04e78463          	beq	a5,a4,3ab2 <__muldf3+0xc2>
    3a6e:	00399513          	slli	a0,s3,0x3
    3a72:	01d65993          	srli	s3,a2,0x1d
    3a76:	00a9e9b3          	or	s3,s3,a0
    3a7a:	c0178793          	addi	a5,a5,-1023 # ffc01 <_data_lma+0xf973d>
    3a7e:	00800537          	lui	a0,0x800
    3a82:	00a9e9b3          	or	s3,s3,a0
    3a86:	00361593          	slli	a1,a2,0x3
    3a8a:	993e                	add	s2,s2,a5
    3a8c:	4801                	li	a6,0
    3a8e:	018bc633          	xor	a2,s7,s8
    3a92:	47bd                	li	a5,15
    3a94:	86b2                	mv	a3,a2
    3a96:	00190713          	addi	a4,s2,1
    3a9a:	1747ef63          	bltu	a5,s4,3c18 <__muldf3+0x228>
    3a9e:	00003517          	auipc	a0,0x3
    3aa2:	88650513          	addi	a0,a0,-1914 # 6324 <sin_tab+0x87c>
    3aa6:	0a0a                	slli	s4,s4,0x2
    3aa8:	9a2a                	add	s4,s4,a0
    3aaa:	000a2783          	lw	a5,0(s4)
    3aae:	97aa                	add	a5,a5,a0
    3ab0:	8782                	jr	a5
    3ab2:	00c9e633          	or	a2,s3,a2
    3ab6:	7ff90913          	addi	s2,s2,2047
    3aba:	12060863          	beqz	a2,3bea <__muldf3+0x1fa>
    3abe:	00c99793          	slli	a5,s3,0xc
    3ac2:	003a6a13          	ori	s4,s4,3
    3ac6:	480d                	li	a6,3
    3ac8:	fc07c3e3          	bltz	a5,3a8e <__muldf3+0x9e>
    3acc:	4ac1                	li	s5,16
    3ace:	b7c1                	j	3a8e <__muldf3+0x9e>
    3ad0:	86e2                	mv	a3,s8
    3ad2:	844e                	mv	s0,s3
    3ad4:	84ae                	mv	s1,a1
    3ad6:	8cc2                	mv	s9,a6
    3ad8:	4789                	li	a5,2
    3ada:	12fc8963          	beq	s9,a5,3c0c <__muldf3+0x21c>
    3ade:	478d                	li	a5,3
    3ae0:	10fc8b63          	beq	s9,a5,3bf6 <__muldf3+0x206>
    3ae4:	4785                	li	a5,1
    3ae6:	8636                	mv	a2,a3
    3ae8:	4cfc9263          	bne	s9,a5,3fac <__muldf3+0x5bc>
    3aec:	4701                	li	a4,0
    3aee:	4781                	li	a5,0
    3af0:	4401                	li	s0,0
    3af2:	07b2                	slli	a5,a5,0xc
    3af4:	0752                	slli	a4,a4,0x14
    3af6:	83b1                	srli	a5,a5,0xc
    3af8:	067e                	slli	a2,a2,0x1f
    3afa:	8fd9                	or	a5,a5,a4
    3afc:	8fd1                	or	a5,a5,a2
    3afe:	8522                	mv	a0,s0
    3b00:	85be                	mv	a1,a5
    3b02:	340a9963          	bnez	s5,3e54 <__muldf3+0x464>
    3b06:	50f2                	lw	ra,60(sp)
    3b08:	5462                	lw	s0,56(sp)
    3b0a:	54d2                	lw	s1,52(sp)
    3b0c:	5942                	lw	s2,48(sp)
    3b0e:	59b2                	lw	s3,44(sp)
    3b10:	5a22                	lw	s4,40(sp)
    3b12:	5a92                	lw	s5,36(sp)
    3b14:	5b02                	lw	s6,32(sp)
    3b16:	4bf2                	lw	s7,28(sp)
    3b18:	4c62                	lw	s8,24(sp)
    3b1a:	4cd2                	lw	s9,20(sp)
    3b1c:	6121                	addi	sp,sp,64
    3b1e:	8082                	ret
    3b20:	00c9e7b3          	or	a5,s3,a2
    3b24:	cfcd                	beqz	a5,3bde <__muldf3+0x1ee>
    3b26:	34098a63          	beqz	s3,3e7a <__muldf3+0x48a>
    3b2a:	854e                	mv	a0,s3
    3b2c:	c432                	sw	a2,8(sp)
    3b2e:	3d8010ef          	jal	ra,4f06 <__clzsi2>
    3b32:	4622                	lw	a2,8(sp)
    3b34:	87aa                	mv	a5,a0
    3b36:	ff550693          	addi	a3,a0,-11
    3b3a:	4775                	li	a4,29
    3b3c:	ff878593          	addi	a1,a5,-8
    3b40:	8f15                	sub	a4,a4,a3
    3b42:	00b999b3          	sll	s3,s3,a1
    3b46:	00e65733          	srl	a4,a2,a4
    3b4a:	013769b3          	or	s3,a4,s3
    3b4e:	00b615b3          	sll	a1,a2,a1
    3b52:	40f90933          	sub	s2,s2,a5
    3b56:	c0d90913          	addi	s2,s2,-1011
    3b5a:	4801                	li	a6,0
    3b5c:	bf0d                	j	3a8e <__muldf3+0x9e>
    3b5e:	00a9e433          	or	s0,s3,a0
    3b62:	c825                	beqz	s0,3bd2 <__muldf3+0x1e2>
    3b64:	c636                	sw	a3,12(sp)
    3b66:	c432                	sw	a2,8(sp)
    3b68:	2e098963          	beqz	s3,3e5a <__muldf3+0x46a>
    3b6c:	854e                	mv	a0,s3
    3b6e:	398010ef          	jal	ra,4f06 <__clzsi2>
    3b72:	4622                	lw	a2,8(sp)
    3b74:	46b2                	lw	a3,12(sp)
    3b76:	87aa                	mv	a5,a0
    3b78:	ff550713          	addi	a4,a0,-11
    3b7c:	4475                	li	s0,29
    3b7e:	ff878493          	addi	s1,a5,-8
    3b82:	8c19                	sub	s0,s0,a4
    3b84:	009999b3          	sll	s3,s3,s1
    3b88:	008a5433          	srl	s0,s4,s0
    3b8c:	01346433          	or	s0,s0,s3
    3b90:	009a14b3          	sll	s1,s4,s1
    3b94:	c0d00913          	li	s2,-1011
    3b98:	40f90933          	sub	s2,s2,a5
    3b9c:	4a01                	li	s4,0
    3b9e:	4c81                	li	s9,0
    3ba0:	4a81                	li	s5,0
    3ba2:	b575                	j	3a4e <__muldf3+0x5e>
    3ba4:	00a9e433          	or	s0,s3,a0
    3ba8:	cc11                	beqz	s0,3bc4 <__muldf3+0x1d4>
    3baa:	00c99793          	slli	a5,s3,0xc
    3bae:	84aa                	mv	s1,a0
    3bb0:	844e                	mv	s0,s3
    3bb2:	4a31                	li	s4,12
    3bb4:	7ff00913          	li	s2,2047
    3bb8:	4c8d                	li	s9,3
    3bba:	4ac1                	li	s5,16
    3bbc:	e807d9e3          	bgez	a5,3a4e <__muldf3+0x5e>
    3bc0:	4a81                	li	s5,0
    3bc2:	b571                	j	3a4e <__muldf3+0x5e>
    3bc4:	4a21                	li	s4,8
    3bc6:	4481                	li	s1,0
    3bc8:	7ff00913          	li	s2,2047
    3bcc:	4c89                	li	s9,2
    3bce:	4a81                	li	s5,0
    3bd0:	bdbd                	j	3a4e <__muldf3+0x5e>
    3bd2:	4a11                	li	s4,4
    3bd4:	4481                	li	s1,0
    3bd6:	4901                	li	s2,0
    3bd8:	4c85                	li	s9,1
    3bda:	4a81                	li	s5,0
    3bdc:	bd8d                	j	3a4e <__muldf3+0x5e>
    3bde:	001a6a13          	ori	s4,s4,1
    3be2:	4981                	li	s3,0
    3be4:	4581                	li	a1,0
    3be6:	4805                	li	a6,1
    3be8:	b55d                	j	3a8e <__muldf3+0x9e>
    3bea:	002a6a13          	ori	s4,s4,2
    3bee:	4981                	li	s3,0
    3bf0:	4581                	li	a1,0
    3bf2:	4809                	li	a6,2
    3bf4:	bd69                	j	3a8e <__muldf3+0x9e>
    3bf6:	4601                	li	a2,0
    3bf8:	7ff00713          	li	a4,2047
    3bfc:	000807b7          	lui	a5,0x80
    3c00:	4401                	li	s0,0
    3c02:	bdc5                	j	3af2 <__muldf3+0x102>
    3c04:	4789                	li	a5,2
    3c06:	86de                	mv	a3,s7
    3c08:	ecfc9be3          	bne	s9,a5,3ade <__muldf3+0xee>
    3c0c:	8636                	mv	a2,a3
    3c0e:	7ff00713          	li	a4,2047
    3c12:	4781                	li	a5,0
    3c14:	4401                	li	s0,0
    3c16:	bdf1                	j	3af2 <__muldf3+0x102>
    3c18:	6341                	lui	t1,0x10
    3c1a:	fff30793          	addi	a5,t1,-1 # ffff <_data_lma+0x9b3b>
    3c1e:	0104d513          	srli	a0,s1,0x10
    3c22:	0105de13          	srli	t3,a1,0x10
    3c26:	8cfd                	and	s1,s1,a5
    3c28:	8dfd                	and	a1,a1,a5
    3c2a:	029587b3          	mul	a5,a1,s1
    3c2e:	02b508b3          	mul	a7,a0,a1
    3c32:	0107d393          	srli	t2,a5,0x10
    3c36:	029e0833          	mul	a6,t3,s1
    3c3a:	9846                	add	a6,a6,a7
    3c3c:	93c2                	add	t2,t2,a6
    3c3e:	03c50833          	mul	a6,a0,t3
    3c42:	0113f363          	bgeu	t2,a7,3c48 <__muldf3+0x258>
    3c46:	981a                	add	a6,a6,t1
    3c48:	6341                	lui	t1,0x10
    3c4a:	fff30e93          	addi	t4,t1,-1 # ffff <_data_lma+0x9b3b>
    3c4e:	0109d293          	srli	t0,s3,0x10
    3c52:	01d9f9b3          	and	s3,s3,t4
    3c56:	01d3f8b3          	and	a7,t2,t4
    3c5a:	01d7f7b3          	and	a5,a5,t4
    3c5e:	08c2                	slli	a7,a7,0x10
    3c60:	03348eb3          	mul	t4,s1,s3
    3c64:	98be                	add	a7,a7,a5
    3c66:	0103d393          	srli	t2,t2,0x10
    3c6a:	03350fb3          	mul	t6,a0,s3
    3c6e:	010edf13          	srli	t5,t4,0x10
    3c72:	029284b3          	mul	s1,t0,s1
    3c76:	94fe                	add	s1,s1,t6
    3c78:	94fa                	add	s1,s1,t5
    3c7a:	025507b3          	mul	a5,a0,t0
    3c7e:	01f4f363          	bgeu	s1,t6,3c84 <__muldf3+0x294>
    3c82:	979a                	add	a5,a5,t1
    3c84:	6341                	lui	t1,0x10
    3c86:	fff30b93          	addi	s7,t1,-1 # ffff <_data_lma+0x9b3b>
    3c8a:	01045a13          	srli	s4,s0,0x10
    3c8e:	01747533          	and	a0,s0,s7
    3c92:	0174ffb3          	and	t6,s1,s7
    3c96:	80c1                	srli	s1,s1,0x10
    3c98:	00f48f33          	add	t5,s1,a5
    3c9c:	02a58433          	mul	s0,a1,a0
    3ca0:	017efeb3          	and	t4,t4,s7
    3ca4:	0fc2                	slli	t6,t6,0x10
    3ca6:	9ff6                	add	t6,t6,t4
    3ca8:	93fe                	add	t2,t2,t6
    3caa:	02ae07b3          	mul	a5,t3,a0
    3cae:	01045e93          	srli	t4,s0,0x10
    3cb2:	02ba05b3          	mul	a1,s4,a1
    3cb6:	97ae                	add	a5,a5,a1
    3cb8:	9ebe                	add	t4,t4,a5
    3cba:	034e0e33          	mul	t3,t3,s4
    3cbe:	00bef363          	bgeu	t4,a1,3cc4 <__muldf3+0x2d4>
    3cc2:	9e1a                	add	t3,t3,t1
    3cc4:	67c1                	lui	a5,0x10
    3cc6:	fff78593          	addi	a1,a5,-1 # ffff <_data_lma+0x9b3b>
    3cca:	00bef333          	and	t1,t4,a1
    3cce:	8c6d                	and	s0,s0,a1
    3cd0:	0342                	slli	t1,t1,0x10
    3cd2:	9322                	add	t1,t1,s0
    3cd4:	010ede93          	srli	t4,t4,0x10
    3cd8:	033505b3          	mul	a1,a0,s3
    3cdc:	9e76                	add	t3,t3,t4
    3cde:	02a28533          	mul	a0,t0,a0
    3ce2:	0105d413          	srli	s0,a1,0x10
    3ce6:	033a09b3          	mul	s3,s4,s3
    3cea:	954e                	add	a0,a0,s3
    3cec:	9522                	add	a0,a0,s0
    3cee:	034282b3          	mul	t0,t0,s4
    3cf2:	01357363          	bgeu	a0,s3,3cf8 <__muldf3+0x308>
    3cf6:	92be                	add	t0,t0,a5
    3cf8:	6ec1                	lui	t4,0x10
    3cfa:	1efd                	addi	t4,t4,-1
    3cfc:	01d577b3          	and	a5,a0,t4
    3d00:	07c2                	slli	a5,a5,0x10
    3d02:	01d5feb3          	and	t4,a1,t4
    3d06:	97f6                	add	a5,a5,t4
    3d08:	007805b3          	add	a1,a6,t2
    3d0c:	01f5bfb3          	sltu	t6,a1,t6
    3d10:	97fa                	add	a5,a5,t5
    3d12:	959a                	add	a1,a1,t1
    3d14:	01f78433          	add	s0,a5,t6
    3d18:	0065b833          	sltu	a6,a1,t1
    3d1c:	01c40eb3          	add	t4,s0,t3
    3d20:	010e8333          	add	t1,t4,a6
    3d24:	01f43433          	sltu	s0,s0,t6
    3d28:	01e7b7b3          	sltu	a5,a5,t5
    3d2c:	8fc1                	or	a5,a5,s0
    3d2e:	01033833          	sltu	a6,t1,a6
    3d32:	01055413          	srli	s0,a0,0x10
    3d36:	01cebe33          	sltu	t3,t4,t3
    3d3a:	943e                	add	s0,s0,a5
    3d3c:	010e6833          	or	a6,t3,a6
    3d40:	9442                	add	s0,s0,a6
    3d42:	00959493          	slli	s1,a1,0x9
    3d46:	9416                	add	s0,s0,t0
    3d48:	01735513          	srli	a0,t1,0x17
    3d4c:	0114e4b3          	or	s1,s1,a7
    3d50:	0426                	slli	s0,s0,0x9
    3d52:	009034b3          	snez	s1,s1
    3d56:	81dd                	srli	a1,a1,0x17
    3d58:	8c49                	or	s0,s0,a0
    3d5a:	8ccd                	or	s1,s1,a1
    3d5c:	0326                	slli	t1,t1,0x9
    3d5e:	00741793          	slli	a5,s0,0x7
    3d62:	0064e4b3          	or	s1,s1,t1
    3d66:	0007db63          	bgez	a5,3d7c <__muldf3+0x38c>
    3d6a:	0014d793          	srli	a5,s1,0x1
    3d6e:	8885                	andi	s1,s1,1
    3d70:	01f41593          	slli	a1,s0,0x1f
    3d74:	8cdd                	or	s1,s1,a5
    3d76:	8ccd                	or	s1,s1,a1
    3d78:	8005                	srli	s0,s0,0x1
    3d7a:	893a                	mv	s2,a4
    3d7c:	3ff90713          	addi	a4,s2,1023
    3d80:	04e05963          	blez	a4,3dd2 <__muldf3+0x3e2>
    3d84:	0074f793          	andi	a5,s1,7
    3d88:	cb99                	beqz	a5,3d9e <__muldf3+0x3ae>
    3d8a:	4789                	li	a5,2
    3d8c:	001aea93          	ori	s5,s5,1
    3d90:	20fb0b63          	beq	s6,a5,3fa6 <__muldf3+0x5b6>
    3d94:	478d                	li	a5,3
    3d96:	1efb0d63          	beq	s6,a5,3f90 <__muldf3+0x5a0>
    3d9a:	1c0b0f63          	beqz	s6,3f78 <__muldf3+0x588>
    3d9e:	00741793          	slli	a5,s0,0x7
    3da2:	0007d863          	bgez	a5,3db2 <__muldf3+0x3c2>
    3da6:	ff0007b7          	lui	a5,0xff000
    3daa:	17fd                	addi	a5,a5,-1
    3dac:	8c7d                	and	s0,s0,a5
    3dae:	40090713          	addi	a4,s2,1024
    3db2:	7fe00793          	li	a5,2046
    3db6:	10e7c963          	blt	a5,a4,3ec8 <__muldf3+0x4d8>
    3dba:	0034d693          	srli	a3,s1,0x3
    3dbe:	00941793          	slli	a5,s0,0x9
    3dc2:	01d41493          	slli	s1,s0,0x1d
    3dc6:	00d4e433          	or	s0,s1,a3
    3dca:	83b1                	srli	a5,a5,0xc
    3dcc:	7ff77713          	andi	a4,a4,2047
    3dd0:	b30d                	j	3af2 <__muldf3+0x102>
    3dd2:	4785                	li	a5,1
    3dd4:	8f99                	sub	a5,a5,a4
    3dd6:	e379                	bnez	a4,3e9c <__muldf3+0x4ac>
    3dd8:	0074f593          	andi	a1,s1,7
    3ddc:	8722                	mv	a4,s0
    3dde:	cd81                	beqz	a1,3df6 <__muldf3+0x406>
    3de0:	4709                	li	a4,2
    3de2:	001aea93          	ori	s5,s5,1
    3de6:	20eb0963          	beq	s6,a4,3ff8 <__muldf3+0x608>
    3dea:	470d                	li	a4,3
    3dec:	1eeb0d63          	beq	s6,a4,3fe6 <__muldf3+0x5f6>
    3df0:	8722                	mv	a4,s0
    3df2:	1c0b0f63          	beqz	s6,3fd0 <__muldf3+0x5e0>
    3df6:	8361                	srli	a4,a4,0x18
    3df8:	00174713          	xori	a4,a4,1
    3dfc:	00177593          	andi	a1,a4,1
    3e00:	41e90913          	addi	s2,s2,1054
    3e04:	01249733          	sll	a4,s1,s2
    3e08:	01241933          	sll	s2,s0,s2
    3e0c:	00f4d4b3          	srl	s1,s1,a5
    3e10:	00e03733          	snez	a4,a4
    3e14:	009964b3          	or	s1,s2,s1
    3e18:	8cd9                	or	s1,s1,a4
    3e1a:	0074f513          	andi	a0,s1,7
    3e1e:	00f45733          	srl	a4,s0,a5
    3e22:	c919                	beqz	a0,3e38 <__muldf3+0x448>
    3e24:	4789                	li	a5,2
    3e26:	001aea93          	ori	s5,s5,1
    3e2a:	1efb0863          	beq	s6,a5,401a <__muldf3+0x62a>
    3e2e:	478d                	li	a5,3
    3e30:	1cfb0a63          	beq	s6,a5,4004 <__muldf3+0x614>
    3e34:	1e0b0863          	beqz	s6,4024 <__muldf3+0x634>
    3e38:	00871793          	slli	a5,a4,0x8
    3e3c:	1807d063          	bgez	a5,3fbc <__muldf3+0x5cc>
    3e40:	001aea93          	ori	s5,s5,1
    3e44:	16059663          	bnez	a1,3fb0 <__muldf3+0x5c0>
    3e48:	067e                	slli	a2,a2,0x1f
    3e4a:	001007b7          	lui	a5,0x100
    3e4e:	8fd1                	or	a5,a5,a2
    3e50:	4501                	li	a0,0
    3e52:	85be                	mv	a1,a5
    3e54:	001aa073          	csrs	fflags,s5
    3e58:	b17d                	j	3b06 <__muldf3+0x116>
    3e5a:	0ac010ef          	jal	ra,4f06 <__clzsi2>
    3e5e:	01550713          	addi	a4,a0,21
    3e62:	45f1                	li	a1,28
    3e64:	02050793          	addi	a5,a0,32
    3e68:	4622                	lw	a2,8(sp)
    3e6a:	46b2                	lw	a3,12(sp)
    3e6c:	d0e5d8e3          	bge	a1,a4,3b7c <__muldf3+0x18c>
    3e70:	1561                	addi	a0,a0,-8
    3e72:	00aa1433          	sll	s0,s4,a0
    3e76:	4481                	li	s1,0
    3e78:	bb31                	j	3b94 <__muldf3+0x1a4>
    3e7a:	8532                	mv	a0,a2
    3e7c:	c432                	sw	a2,8(sp)
    3e7e:	088010ef          	jal	ra,4f06 <__clzsi2>
    3e82:	01550693          	addi	a3,a0,21
    3e86:	4771                	li	a4,28
    3e88:	02050793          	addi	a5,a0,32
    3e8c:	4622                	lw	a2,8(sp)
    3e8e:	cad756e3          	bge	a4,a3,3b3a <__muldf3+0x14a>
    3e92:	1561                	addi	a0,a0,-8
    3e94:	4581                	li	a1,0
    3e96:	00a619b3          	sll	s3,a2,a0
    3e9a:	b965                	j	3b52 <__muldf3+0x162>
    3e9c:	03800593          	li	a1,56
    3ea0:	06f5d963          	bge	a1,a5,3f12 <__muldf3+0x522>
    3ea4:	8c45                	or	s0,s0,s1
    3ea6:	cc01                	beqz	s0,3ebe <__muldf3+0x4ce>
    3ea8:	4789                	li	a5,2
    3eaa:	001aea93          	ori	s5,s5,1
    3eae:	00d03433          	snez	s0,a3
    3eb2:	00fb0663          	beq	s6,a5,3ebe <__muldf3+0x4ce>
    3eb6:	478d                	li	a5,3
    3eb8:	4401                	li	s0,0
    3eba:	18fb0163          	beq	s6,a5,403c <__muldf3+0x64c>
    3ebe:	002aea93          	ori	s5,s5,2
    3ec2:	4681                	li	a3,0
    3ec4:	4781                	li	a5,0
    3ec6:	a015                	j	3eea <__muldf3+0x4fa>
    3ec8:	4789                	li	a5,2
    3eca:	0cfb0c63          	beq	s6,a5,3fa2 <__muldf3+0x5b2>
    3ece:	478d                	li	a5,3
    3ed0:	08fb0e63          	beq	s6,a5,3f6c <__muldf3+0x57c>
    3ed4:	080b0d63          	beqz	s6,3f6e <__muldf3+0x57e>
    3ed8:	00100437          	lui	s0,0x100
    3edc:	fff40793          	addi	a5,s0,-1 # fffff <_data_lma+0xf9b3b>
    3ee0:	7fe00693          	li	a3,2046
    3ee4:	547d                	li	s0,-1
    3ee6:	005aea93          	ori	s5,s5,5
    3eea:	00c79713          	slli	a4,a5,0xc
    3eee:	8331                	srli	a4,a4,0xc
    3ef0:	01469793          	slli	a5,a3,0x14
    3ef4:	067e                	slli	a2,a2,0x1f
    3ef6:	8fd9                	or	a5,a5,a4
    3ef8:	8fd1                	or	a5,a5,a2
    3efa:	8522                	mv	a0,s0
    3efc:	85be                	mv	a1,a5
    3efe:	001aa073          	csrs	fflags,s5
    3f02:	b111                	j	3b06 <__muldf3+0x116>
    3f04:	4501                	li	a0,0
    3f06:	7ff805b7          	lui	a1,0x7ff80
    3f0a:	4ac1                	li	s5,16
    3f0c:	001aa073          	csrs	fflags,s5
    3f10:	bedd                	j	3b06 <__muldf3+0x116>
    3f12:	45fd                	li	a1,31
    3f14:	12f5d763          	bge	a1,a5,4042 <__muldf3+0x652>
    3f18:	5585                	li	a1,-31
    3f1a:	40e58733          	sub	a4,a1,a4
    3f1e:	02000593          	li	a1,32
    3f22:	00e45733          	srl	a4,s0,a4
    3f26:	00b78763          	beq	a5,a1,3f34 <__muldf3+0x544>
    3f2a:	43e90913          	addi	s2,s2,1086
    3f2e:	01241433          	sll	s0,s0,s2
    3f32:	8cc1                	or	s1,s1,s0
    3f34:	009034b3          	snez	s1,s1
    3f38:	8cd9                	or	s1,s1,a4
    3f3a:	0074f793          	andi	a5,s1,7
    3f3e:	cb99                	beqz	a5,3f54 <__muldf3+0x564>
    3f40:	4789                	li	a5,2
    3f42:	001aea93          	ori	s5,s5,1
    3f46:	0cfb0863          	beq	s6,a5,4016 <__muldf3+0x626>
    3f4a:	478d                	li	a5,3
    3f4c:	0afb0a63          	beq	s6,a5,4000 <__muldf3+0x610>
    3f50:	0c0b0863          	beqz	s6,4020 <__muldf3+0x630>
    3f54:	0034d413          	srli	s0,s1,0x3
    3f58:	4781                	li	a5,0
    3f5a:	001af693          	andi	a3,s5,1
    3f5e:	4701                	li	a4,0
    3f60:	b80689e3          	beqz	a3,3af2 <__muldf3+0x102>
    3f64:	4681                	li	a3,0
    3f66:	002aea93          	ori	s5,s5,2
    3f6a:	b741                	j	3eea <__muldf3+0x4fa>
    3f6c:	f6b5                	bnez	a3,3ed8 <__muldf3+0x4e8>
    3f6e:	7ff00693          	li	a3,2047
    3f72:	4781                	li	a5,0
    3f74:	4401                	li	s0,0
    3f76:	bf85                	j	3ee6 <__muldf3+0x4f6>
    3f78:	00f4f793          	andi	a5,s1,15
    3f7c:	4591                	li	a1,4
    3f7e:	e2b780e3          	beq	a5,a1,3d9e <__muldf3+0x3ae>
    3f82:	00448793          	addi	a5,s1,4
    3f86:	0097b4b3          	sltu	s1,a5,s1
    3f8a:	9426                	add	s0,s0,s1
    3f8c:	84be                	mv	s1,a5
    3f8e:	bd01                	j	3d9e <__muldf3+0x3ae>
    3f90:	e00697e3          	bnez	a3,3d9e <__muldf3+0x3ae>
    3f94:	00848793          	addi	a5,s1,8
    3f98:	0097b4b3          	sltu	s1,a5,s1
    3f9c:	9426                	add	s0,s0,s1
    3f9e:	84be                	mv	s1,a5
    3fa0:	bbfd                	j	3d9e <__muldf3+0x3ae>
    3fa2:	da9d                	beqz	a3,3ed8 <__muldf3+0x4e8>
    3fa4:	b7e9                	j	3f6e <__muldf3+0x57e>
    3fa6:	de068ce3          	beqz	a3,3d9e <__muldf3+0x3ae>
    3faa:	b7ed                	j	3f94 <__muldf3+0x5a4>
    3fac:	893a                	mv	s2,a4
    3fae:	b3f9                	j	3d7c <__muldf3+0x38c>
    3fb0:	4685                	li	a3,1
    3fb2:	4781                	li	a5,0
    3fb4:	4401                	li	s0,0
    3fb6:	002aea93          	ori	s5,s5,2
    3fba:	bf05                	j	3eea <__muldf3+0x4fa>
    3fbc:	00971793          	slli	a5,a4,0x9
    3fc0:	0034d413          	srli	s0,s1,0x3
    3fc4:	0776                	slli	a4,a4,0x1d
    3fc6:	83b1                	srli	a5,a5,0xc
    3fc8:	8c59                	or	s0,s0,a4
    3fca:	f9c1                	bnez	a1,3f5a <__muldf3+0x56a>
    3fcc:	4701                	li	a4,0
    3fce:	b615                	j	3af2 <__muldf3+0x102>
    3fd0:	00f4f593          	andi	a1,s1,15
    3fd4:	4511                	li	a0,4
    3fd6:	e2a580e3          	beq	a1,a0,3df6 <__muldf3+0x406>
    3fda:	ffc4b713          	sltiu	a4,s1,-4
    3fde:	00174713          	xori	a4,a4,1
    3fe2:	9722                	add	a4,a4,s0
    3fe4:	bd09                	j	3df6 <__muldf3+0x406>
    3fe6:	8722                	mv	a4,s0
    3fe8:	e00697e3          	bnez	a3,3df6 <__muldf3+0x406>
    3fec:	ff84b713          	sltiu	a4,s1,-8
    3ff0:	00174713          	xori	a4,a4,1
    3ff4:	9722                	add	a4,a4,s0
    3ff6:	b501                	j	3df6 <__muldf3+0x406>
    3ff8:	8722                	mv	a4,s0
    3ffa:	de068ee3          	beqz	a3,3df6 <__muldf3+0x406>
    3ffe:	b7fd                	j	3fec <__muldf3+0x5fc>
    4000:	4585                	li	a1,1
    4002:	4701                	li	a4,0
    4004:	e2069ae3          	bnez	a3,3e38 <__muldf3+0x448>
    4008:	00848793          	addi	a5,s1,8
    400c:	0097b4b3          	sltu	s1,a5,s1
    4010:	9726                	add	a4,a4,s1
    4012:	84be                	mv	s1,a5
    4014:	b515                	j	3e38 <__muldf3+0x448>
    4016:	4585                	li	a1,1
    4018:	4701                	li	a4,0
    401a:	e0068fe3          	beqz	a3,3e38 <__muldf3+0x448>
    401e:	b7ed                	j	4008 <__muldf3+0x618>
    4020:	4585                	li	a1,1
    4022:	4701                	li	a4,0
    4024:	00f4f793          	andi	a5,s1,15
    4028:	4691                	li	a3,4
    402a:	e0d787e3          	beq	a5,a3,3e38 <__muldf3+0x448>
    402e:	00448793          	addi	a5,s1,4
    4032:	0097b4b3          	sltu	s1,a5,s1
    4036:	9726                	add	a4,a4,s1
    4038:	84be                	mv	s1,a5
    403a:	bbfd                	j	3e38 <__muldf3+0x448>
    403c:	0016b413          	seqz	s0,a3
    4040:	bdbd                	j	3ebe <__muldf3+0x4ce>
    4042:	4585                	li	a1,1
    4044:	bb75                	j	3e00 <__muldf3+0x410>

00004046 <__subdf3>:
    4046:	1101                	addi	sp,sp,-32
    4048:	ce06                	sw	ra,28(sp)
    404a:	cc22                	sw	s0,24(sp)
    404c:	ca26                	sw	s1,20(sp)
    404e:	c84a                	sw	s2,16(sp)
    4050:	c64e                	sw	s3,12(sp)
    4052:	c452                	sw	s4,8(sp)
    4054:	002029f3          	frrm	s3
    4058:	00100837          	lui	a6,0x100
    405c:	187d                	addi	a6,a6,-1
    405e:	00b87733          	and	a4,a6,a1
    4062:	0146d893          	srli	a7,a3,0x14
    4066:	00d87833          	and	a6,a6,a3
    406a:	0145d413          	srli	s0,a1,0x14
    406e:	00371e13          	slli	t3,a4,0x3
    4072:	01d55793          	srli	a5,a0,0x1d
    4076:	080e                	slli	a6,a6,0x3
    4078:	01d65313          	srli	t1,a2,0x1d
    407c:	7ff8f893          	andi	a7,a7,2047
    4080:	7ff00e93          	li	t4,2047
    4084:	01f5d493          	srli	s1,a1,0x1f
    4088:	01c7e733          	or	a4,a5,t3
    408c:	7ff47413          	andi	s0,s0,2047
    4090:	00351e13          	slli	t3,a0,0x3
    4094:	82fd                	srli	a3,a3,0x1f
    4096:	01036833          	or	a6,t1,a6
    409a:	00361593          	slli	a1,a2,0x3
    409e:	1dd88263          	beq	a7,t4,4262 <__subdf3+0x21c>
    40a2:	0016c693          	xori	a3,a3,1
    40a6:	41140333          	sub	t1,s0,a7
    40aa:	16d48763          	beq	s1,a3,4218 <__subdf3+0x1d2>
    40ae:	1c605363          	blez	t1,4274 <__subdf3+0x22e>
    40b2:	22088463          	beqz	a7,42da <__subdf3+0x294>
    40b6:	008007b7          	lui	a5,0x800
    40ba:	00f86833          	or	a6,a6,a5
    40be:	6dd40263          	beq	s0,t4,4782 <__subdf3+0x73c>
    40c2:	03800793          	li	a5,56
    40c6:	3a67cd63          	blt	a5,t1,4480 <__subdf3+0x43a>
    40ca:	47fd                	li	a5,31
    40cc:	5267c263          	blt	a5,t1,45f0 <__subdf3+0x5aa>
    40d0:	02000793          	li	a5,32
    40d4:	406787b3          	sub	a5,a5,t1
    40d8:	0065d933          	srl	s2,a1,t1
    40dc:	00f81633          	sll	a2,a6,a5
    40e0:	00f595b3          	sll	a1,a1,a5
    40e4:	01266633          	or	a2,a2,s2
    40e8:	00685333          	srl	t1,a6,t1
    40ec:	00b03933          	snez	s2,a1
    40f0:	01266633          	or	a2,a2,s2
    40f4:	40670733          	sub	a4,a4,t1
    40f8:	40ce0933          	sub	s2,t3,a2
    40fc:	012e3633          	sltu	a2,t3,s2
    4100:	8f11                	sub	a4,a4,a2
    4102:	00871793          	slli	a5,a4,0x8
    4106:	2a07da63          	bgez	a5,43ba <__subdf3+0x374>
    410a:	00971a13          	slli	s4,a4,0x9
    410e:	009a5a13          	srli	s4,s4,0x9
    4112:	340a0b63          	beqz	s4,4468 <__subdf3+0x422>
    4116:	8552                	mv	a0,s4
    4118:	5ef000ef          	jal	ra,4f06 <__clzsi2>
    411c:	1561                	addi	a0,a0,-8
    411e:	02000793          	li	a5,32
    4122:	8f89                	sub	a5,a5,a0
    4124:	00aa1733          	sll	a4,s4,a0
    4128:	00f957b3          	srl	a5,s2,a5
    412c:	8fd9                	or	a5,a5,a4
    412e:	00a91a33          	sll	s4,s2,a0
    4132:	32854063          	blt	a0,s0,4452 <__subdf3+0x40c>
    4136:	8d01                	sub	a0,a0,s0
    4138:	00150713          	addi	a4,a0,1
    413c:	46fd                	li	a3,31
    413e:	44e6c063          	blt	a3,a4,457e <__subdf3+0x538>
    4142:	02000693          	li	a3,32
    4146:	8e99                	sub	a3,a3,a4
    4148:	00ea5933          	srl	s2,s4,a4
    414c:	00d79633          	sll	a2,a5,a3
    4150:	00da16b3          	sll	a3,s4,a3
    4154:	01266633          	or	a2,a2,s2
    4158:	00d036b3          	snez	a3,a3
    415c:	00d66933          	or	s2,a2,a3
    4160:	00e7d733          	srl	a4,a5,a4
    4164:	00e967b3          	or	a5,s2,a4
    4168:	16078063          	beqz	a5,42c8 <__subdf3+0x282>
    416c:	00797793          	andi	a5,s2,7
    4170:	00191593          	slli	a1,s2,0x1
    4174:	00171613          	slli	a2,a4,0x1
    4178:	01f95693          	srli	a3,s2,0x1f
    417c:	0075f513          	andi	a0,a1,7
    4180:	96b2                	add	a3,a3,a2
    4182:	4301                	li	t1,0
    4184:	c911                	beqz	a0,4198 <__subdf3+0x152>
    4186:	4609                	li	a2,2
    4188:	66c98163          	beq	s3,a2,47ea <__subdf3+0x7a4>
    418c:	460d                	li	a2,3
    418e:	4305                	li	t1,1
    4190:	64c98563          	beq	s3,a2,47da <__subdf3+0x794>
    4194:	62098863          	beqz	s3,47c4 <__subdf3+0x77e>
    4198:	01000637          	lui	a2,0x1000
    419c:	8ef1                	and	a3,a3,a2
    419e:	0016b513          	seqz	a0,a3
    41a2:	10078ce3          	beqz	a5,4aba <__subdf3+0xa74>
    41a6:	4401                	li	s0,0
    41a8:	4789                	li	a5,2
    41aa:	26f98c63          	beq	s3,a5,4422 <__subdf3+0x3dc>
    41ae:	478d                	li	a5,3
    41b0:	28f98863          	beq	s3,a5,4440 <__subdf3+0x3fa>
    41b4:	24098263          	beqz	s3,43f8 <__subdf3+0x3b2>
    41b8:	008005b7          	lui	a1,0x800
    41bc:	8df9                	and	a1,a1,a4
    41be:	4305                	li	t1,1
    41c0:	c119                	beqz	a0,41c6 <__subdf3+0x180>
    41c2:	00236313          	ori	t1,t1,2
    41c6:	4a058363          	beqz	a1,466c <__subdf3+0x626>
    41ca:	0405                	addi	s0,s0,1
    41cc:	7ff00793          	li	a5,2047
    41d0:	20f40363          	beq	s0,a5,43d6 <__subdf3+0x390>
    41d4:	ff8007b7          	lui	a5,0xff800
    41d8:	17fd                	addi	a5,a5,-1
    41da:	8ff9                	and	a5,a5,a4
    41dc:	01d79613          	slli	a2,a5,0x1d
    41e0:	00395913          	srli	s2,s2,0x3
    41e4:	07a6                	slli	a5,a5,0x9
    41e6:	01266633          	or	a2,a2,s2
    41ea:	83b1                	srli	a5,a5,0xc
    41ec:	7ff47413          	andi	s0,s0,2047
    41f0:	8885                	andi	s1,s1,1
    41f2:	00c79713          	slli	a4,a5,0xc
    41f6:	0452                	slli	s0,s0,0x14
    41f8:	8331                	srli	a4,a4,0xc
    41fa:	04fe                	slli	s1,s1,0x1f
    41fc:	8f41                	or	a4,a4,s0
    41fe:	8f45                	or	a4,a4,s1
    4200:	8532                	mv	a0,a2
    4202:	85ba                	mv	a1,a4
    4204:	2a031463          	bnez	t1,44ac <__subdf3+0x466>
    4208:	40f2                	lw	ra,28(sp)
    420a:	4462                	lw	s0,24(sp)
    420c:	44d2                	lw	s1,20(sp)
    420e:	4942                	lw	s2,16(sp)
    4210:	49b2                	lw	s3,12(sp)
    4212:	4a22                	lw	s4,8(sp)
    4214:	6105                	addi	sp,sp,32
    4216:	8082                	ret
    4218:	0c605d63          	blez	t1,42f2 <__subdf3+0x2ac>
    421c:	16088c63          	beqz	a7,4394 <__subdf3+0x34e>
    4220:	008007b7          	lui	a5,0x800
    4224:	00f86833          	or	a6,a6,a5
    4228:	51d40a63          	beq	s0,t4,473c <__subdf3+0x6f6>
    422c:	03800793          	li	a5,56
    4230:	3667cc63          	blt	a5,t1,45a8 <__subdf3+0x562>
    4234:	47fd                	li	a5,31
    4236:	4667d063          	bge	a5,t1,4696 <__subdf3+0x650>
    423a:	fe030613          	addi	a2,t1,-32
    423e:	02000793          	li	a5,32
    4242:	00c85633          	srl	a2,a6,a2
    4246:	00f30a63          	beq	t1,a5,425a <__subdf3+0x214>
    424a:	04000793          	li	a5,64
    424e:	40678333          	sub	t1,a5,t1
    4252:	00681833          	sll	a6,a6,t1
    4256:	0105e5b3          	or	a1,a1,a6
    425a:	00b035b3          	snez	a1,a1
    425e:	8e4d                	or	a2,a2,a1
    4260:	ae81                	j	45b0 <__subdf3+0x56a>
    4262:	00b867b3          	or	a5,a6,a1
    4266:	80140313          	addi	t1,s0,-2047
    426a:	e399                	bnez	a5,4270 <__subdf3+0x22a>
    426c:	0016c693          	xori	a3,a3,1
    4270:	08d48163          	beq	s1,a3,42f2 <__subdf3+0x2ac>
    4274:	0c031563          	bnez	t1,433e <__subdf3+0x2f8>
    4278:	00140793          	addi	a5,s0,1
    427c:	7fe7f793          	andi	a5,a5,2046
    4280:	24079263          	bnez	a5,44c4 <__subdf3+0x47e>
    4284:	01c76eb3          	or	t4,a4,t3
    4288:	00b867b3          	or	a5,a6,a1
    428c:	5a041263          	bnez	s0,4830 <__subdf3+0x7ea>
    4290:	480e8e63          	beqz	t4,472c <__subdf3+0x6e6>
    4294:	4a078263          	beqz	a5,4738 <__subdf3+0x6f2>
    4298:	40be0533          	sub	a0,t3,a1
    429c:	00ae37b3          	sltu	a5,t3,a0
    42a0:	41070633          	sub	a2,a4,a6
    42a4:	8e1d                	sub	a2,a2,a5
    42a6:	00861793          	slli	a5,a2,0x8
    42aa:	6a07d463          	bgez	a5,4952 <__subdf3+0x90c>
    42ae:	41c58933          	sub	s2,a1,t3
    42b2:	40e807b3          	sub	a5,a6,a4
    42b6:	0125b5b3          	sltu	a1,a1,s2
    42ba:	40b78733          	sub	a4,a5,a1
    42be:	00e967b3          	or	a5,s2,a4
    42c2:	84b6                	mv	s1,a3
    42c4:	ea0794e3          	bnez	a5,416c <__subdf3+0x126>
    42c8:	4601                	li	a2,0
    42ca:	4401                	li	s0,0
    42cc:	4301                	li	t1,0
    42ce:	07b2                	slli	a5,a5,0xc
    42d0:	83b1                	srli	a5,a5,0xc
    42d2:	7ff47413          	andi	s0,s0,2047
    42d6:	8885                	andi	s1,s1,1
    42d8:	bf29                	j	41f2 <__subdf3+0x1ac>
    42da:	00b867b3          	or	a5,a6,a1
    42de:	1a078663          	beqz	a5,448a <__subdf3+0x444>
    42e2:	fff30793          	addi	a5,t1,-1
    42e6:	48078063          	beqz	a5,4766 <__subdf3+0x720>
    42ea:	45d30963          	beq	t1,t4,473c <__subdf3+0x6f6>
    42ee:	833e                	mv	t1,a5
    42f0:	bbc9                	j	40c2 <__subdf3+0x7c>
    42f2:	20031063          	bnez	t1,44f2 <__subdf3+0x4ac>
    42f6:	00140693          	addi	a3,s0,1
    42fa:	7fe6f793          	andi	a5,a3,2046
    42fe:	4e079a63          	bnez	a5,47f2 <__subdf3+0x7ac>
    4302:	01c766b3          	or	a3,a4,t3
    4306:	3e041e63          	bnez	s0,4702 <__subdf3+0x6bc>
    430a:	00b867b3          	or	a5,a6,a1
    430e:	5a068a63          	beqz	a3,48c2 <__subdf3+0x87c>
    4312:	42078363          	beqz	a5,4738 <__subdf3+0x6f2>
    4316:	00be0933          	add	s2,t3,a1
    431a:	010707b3          	add	a5,a4,a6
    431e:	01c93633          	sltu	a2,s2,t3
    4322:	00c78733          	add	a4,a5,a2
    4326:	00871793          	slli	a5,a4,0x8
    432a:	e207dde3          	bgez	a5,4164 <__subdf3+0x11e>
    432e:	ff8007b7          	lui	a5,0xff800
    4332:	17fd                	addi	a5,a5,-1
    4334:	8f7d                	and	a4,a4,a5
    4336:	4405                	li	s0,1
    4338:	00797793          	andi	a5,s2,7
    433c:	a069                	j	43c6 <__subdf3+0x380>
    433e:	408887b3          	sub	a5,a7,s0
    4342:	20041363          	bnez	s0,4548 <__subdf3+0x502>
    4346:	01c76533          	or	a0,a4,t3
    434a:	c125                	beqz	a0,43aa <__subdf3+0x364>
    434c:	fff78513          	addi	a0,a5,-1 # ff7fffff <_eusrstack+0xdf7f7fff>
    4350:	54050f63          	beqz	a0,48ae <__subdf3+0x868>
    4354:	7ff00313          	li	t1,2047
    4358:	60678663          	beq	a5,t1,4964 <__subdf3+0x91e>
    435c:	87aa                	mv	a5,a0
    435e:	03800613          	li	a2,56
    4362:	2af64b63          	blt	a2,a5,4618 <__subdf3+0x5d2>
    4366:	467d                	li	a2,31
    4368:	50f64863          	blt	a2,a5,4878 <__subdf3+0x832>
    436c:	02000513          	li	a0,32
    4370:	8d1d                	sub	a0,a0,a5
    4372:	00a71633          	sll	a2,a4,a0
    4376:	00fe5333          	srl	t1,t3,a5
    437a:	00ae1533          	sll	a0,t3,a0
    437e:	00666633          	or	a2,a2,t1
    4382:	00a03933          	snez	s2,a0
    4386:	00f757b3          	srl	a5,a4,a5
    438a:	01266633          	or	a2,a2,s2
    438e:	40f80833          	sub	a6,a6,a5
    4392:	a479                	j	4620 <__subdf3+0x5da>
    4394:	00b867b3          	or	a5,a6,a1
    4398:	cbed                	beqz	a5,448a <__subdf3+0x444>
    439a:	fff30793          	addi	a5,t1,-1
    439e:	32078063          	beqz	a5,46be <__subdf3+0x678>
    43a2:	4bd30b63          	beq	t1,t4,4858 <__subdf3+0x812>
    43a6:	833e                	mv	t1,a5
    43a8:	b551                	j	422c <__subdf3+0x1e6>
    43aa:	7ff00713          	li	a4,2047
    43ae:	5ee78a63          	beq	a5,a4,49a2 <__subdf3+0x95c>
    43b2:	8742                	mv	a4,a6
    43b4:	892e                	mv	s2,a1
    43b6:	843e                	mv	s0,a5
    43b8:	84b6                	mv	s1,a3
    43ba:	00e967b3          	or	a5,s2,a4
    43be:	da0405e3          	beqz	s0,4168 <__subdf3+0x122>
    43c2:	00797793          	andi	a5,s2,7
    43c6:	4501                	li	a0,0
    43c8:	de0790e3          	bnez	a5,41a8 <__subdf3+0x162>
    43cc:	008005b7          	lui	a1,0x800
    43d0:	8df9                	and	a1,a1,a4
    43d2:	4301                	li	t1,0
    43d4:	bbcd                	j	41c6 <__subdf3+0x180>
    43d6:	0c098f63          	beqz	s3,44b4 <__subdf3+0x46e>
    43da:	478d                	li	a5,3
    43dc:	0cf98b63          	beq	s3,a5,44b2 <__subdf3+0x46c>
    43e0:	4789                	li	a5,2
    43e2:	30f98b63          	beq	s3,a5,46f8 <__subdf3+0x6b2>
    43e6:	00536313          	ori	t1,t1,5
    43ea:	200007b7          	lui	a5,0x20000
    43ee:	567d                	li	a2,-1
    43f0:	17fd                	addi	a5,a5,-1
    43f2:	7fe00413          	li	s0,2046
    43f6:	bde1                	j	42ce <__subdf3+0x288>
    43f8:	008005b7          	lui	a1,0x800
    43fc:	00f97793          	andi	a5,s2,15
    4400:	4691                	li	a3,4
    4402:	4305                	li	t1,1
    4404:	8df9                	and	a1,a1,a4
    4406:	dad78de3          	beq	a5,a3,41c0 <__subdf3+0x17a>
    440a:	ffc93793          	sltiu	a5,s2,-4
    440e:	0017c793          	xori	a5,a5,1
    4412:	973e                	add	a4,a4,a5
    4414:	008005b7          	lui	a1,0x800
    4418:	8df9                	and	a1,a1,a4
    441a:	0911                	addi	s2,s2,4
    441c:	da0513e3          	bnez	a0,41c2 <__subdf3+0x17c>
    4420:	b35d                	j	41c6 <__subdf3+0x180>
    4422:	d8048be3          	beqz	s1,41b8 <__subdf3+0x172>
    4426:	00890793          	addi	a5,s2,8
    442a:	0127b633          	sltu	a2,a5,s2
    442e:	9732                	add	a4,a4,a2
    4430:	008005b7          	lui	a1,0x800
    4434:	8df9                	and	a1,a1,a4
    4436:	893e                	mv	s2,a5
    4438:	4305                	li	t1,1
    443a:	d80514e3          	bnez	a0,41c2 <__subdf3+0x17c>
    443e:	b361                	j	41c6 <__subdf3+0x180>
    4440:	d0fd                	beqz	s1,4426 <__subdf3+0x3e0>
    4442:	4305                	li	t1,1
    4444:	008005b7          	lui	a1,0x800
    4448:	8df9                	and	a1,a1,a4
    444a:	4485                	li	s1,1
    444c:	d6051be3          	bnez	a0,41c2 <__subdf3+0x17c>
    4450:	bb9d                	j	41c6 <__subdf3+0x180>
    4452:	ff800737          	lui	a4,0xff800
    4456:	177d                	addi	a4,a4,-1
    4458:	8f7d                	and	a4,a4,a5
    445a:	8952                	mv	s2,s4
    445c:	8c09                	sub	s0,s0,a0
    445e:	00e967b3          	or	a5,s2,a4
    4462:	d00403e3          	beqz	s0,4168 <__subdf3+0x122>
    4466:	bfb1                	j	43c2 <__subdf3+0x37c>
    4468:	854a                	mv	a0,s2
    446a:	29d000ef          	jal	ra,4f06 <__clzsi2>
    446e:	ff850793          	addi	a5,a0,-8
    4472:	477d                	li	a4,31
    4474:	0561                	addi	a0,a0,24
    4476:	00f917b3          	sll	a5,s2,a5
    447a:	caa74ce3          	blt	a4,a0,4132 <__subdf3+0xec>
    447e:	b145                	j	411e <__subdf3+0xd8>
    4480:	00b86833          	or	a6,a6,a1
    4484:	01003633          	snez	a2,a6
    4488:	b985                	j	40f8 <__subdf3+0xb2>
    448a:	31d30f63          	beq	t1,t4,47a8 <__subdf3+0x762>
    448e:	008005b7          	lui	a1,0x800
    4492:	841a                	mv	s0,t1
    4494:	8df9                	and	a1,a1,a4
    4496:	8972                	mv	s2,t3
    4498:	4301                	li	t1,0
    449a:	b335                	j	41c6 <__subdf3+0x180>
    449c:	48888863          	beq	a7,s0,492c <__subdf3+0x8e6>
    44a0:	48079f63          	bnez	a5,493e <__subdf3+0x8f8>
    44a4:	4501                	li	a0,0
    44a6:	7ff805b7          	lui	a1,0x7ff80
    44aa:	4341                	li	t1,16
    44ac:	00132073          	csrs	fflags,t1
    44b0:	bba1                	j	4208 <__subdf3+0x1c2>
    44b2:	f895                	bnez	s1,43e6 <__subdf3+0x3a0>
    44b4:	00536313          	ori	t1,t1,5
    44b8:	8885                	andi	s1,s1,1
    44ba:	7ff00413          	li	s0,2047
    44be:	4781                	li	a5,0
    44c0:	4601                	li	a2,0
    44c2:	bb05                	j	41f2 <__subdf3+0x1ac>
    44c4:	40be0933          	sub	s2,t3,a1
    44c8:	012e37b3          	sltu	a5,t3,s2
    44cc:	41070a33          	sub	s4,a4,a6
    44d0:	40fa0a33          	sub	s4,s4,a5
    44d4:	008a1793          	slli	a5,s4,0x8
    44d8:	3407c263          	bltz	a5,481c <__subdf3+0x7d6>
    44dc:	014967b3          	or	a5,s2,s4
    44e0:	c20799e3          	bnez	a5,4112 <__subdf3+0xcc>
    44e4:	ffe98493          	addi	s1,s3,-2
    44e8:	0014b493          	seqz	s1,s1
    44ec:	4601                	li	a2,0
    44ee:	4401                	li	s0,0
    44f0:	bbf9                	j	42ce <__subdf3+0x288>
    44f2:	408887b3          	sub	a5,a7,s0
    44f6:	12040e63          	beqz	s0,4632 <__subdf3+0x5ec>
    44fa:	00800537          	lui	a0,0x800
    44fe:	7ff00693          	li	a3,2047
    4502:	8f49                	or	a4,a4,a0
    4504:	50d88763          	beq	a7,a3,4a12 <__subdf3+0x9cc>
    4508:	03800693          	li	a3,56
    450c:	36f6c163          	blt	a3,a5,486e <__subdf3+0x828>
    4510:	46fd                	li	a3,31
    4512:	46f6c363          	blt	a3,a5,4978 <__subdf3+0x932>
    4516:	02000693          	li	a3,32
    451a:	8e9d                	sub	a3,a3,a5
    451c:	00d71633          	sll	a2,a4,a3
    4520:	00fe5533          	srl	a0,t3,a5
    4524:	00de16b3          	sll	a3,t3,a3
    4528:	8e49                	or	a2,a2,a0
    452a:	00d03933          	snez	s2,a3
    452e:	00f757b3          	srl	a5,a4,a5
    4532:	01266633          	or	a2,a2,s2
    4536:	983e                	add	a6,a6,a5
    4538:	00b60933          	add	s2,a2,a1
    453c:	00b937b3          	sltu	a5,s2,a1
    4540:	01078733          	add	a4,a5,a6
    4544:	8446                	mv	s0,a7
    4546:	a895                	j	45ba <__subdf3+0x574>
    4548:	00800337          	lui	t1,0x800
    454c:	7ff00513          	li	a0,2047
    4550:	00676733          	or	a4,a4,t1
    4554:	e0a895e3          	bne	a7,a0,435e <__subdf3+0x318>
    4558:	00b865b3          	or	a1,a6,a1
    455c:	20058263          	beqz	a1,4760 <__subdf3+0x71a>
    4560:	060e                	slli	a2,a2,0x3
    4562:	820d                	srli	a2,a2,0x3
    4564:	01d81793          	slli	a5,a6,0x1d
    4568:	00981713          	slli	a4,a6,0x9
    456c:	8e5d                	or	a2,a2,a5
    456e:	84b6                	mv	s1,a3
    4570:	00385793          	srli	a5,a6,0x3
    4574:	4301                	li	t1,0
    4576:	10074663          	bltz	a4,4682 <__subdf3+0x63c>
    457a:	4341                	li	t1,16
    457c:	a219                	j	4682 <__subdf3+0x63c>
    457e:	1505                	addi	a0,a0,-31
    4580:	02000693          	li	a3,32
    4584:	00a7d533          	srl	a0,a5,a0
    4588:	00d70a63          	beq	a4,a3,459c <__subdf3+0x556>
    458c:	04000693          	li	a3,64
    4590:	40e68733          	sub	a4,a3,a4
    4594:	00e797b3          	sll	a5,a5,a4
    4598:	00fa6a33          	or	s4,s4,a5
    459c:	014037b3          	snez	a5,s4
    45a0:	8fc9                	or	a5,a5,a0
    45a2:	893e                	mv	s2,a5
    45a4:	4701                	li	a4,0
    45a6:	b6c9                	j	4168 <__subdf3+0x122>
    45a8:	00b86833          	or	a6,a6,a1
    45ac:	01003633          	snez	a2,a6
    45b0:	01c60933          	add	s2,a2,t3
    45b4:	01c93633          	sltu	a2,s2,t3
    45b8:	9732                	add	a4,a4,a2
    45ba:	00871793          	slli	a5,a4,0x8
    45be:	de07dee3          	bgez	a5,43ba <__subdf3+0x374>
    45c2:	0405                	addi	s0,s0,1
    45c4:	7ff00793          	li	a5,2047
    45c8:	08f40363          	beq	s0,a5,464e <__subdf3+0x608>
    45cc:	ff8007b7          	lui	a5,0xff800
    45d0:	17fd                	addi	a5,a5,-1
    45d2:	8ff9                	and	a5,a5,a4
    45d4:	00197613          	andi	a2,s2,1
    45d8:	00195713          	srli	a4,s2,0x1
    45dc:	8e59                	or	a2,a2,a4
    45de:	01f79913          	slli	s2,a5,0x1f
    45e2:	00c96933          	or	s2,s2,a2
    45e6:	0017d713          	srli	a4,a5,0x1
    45ea:	00797793          	andi	a5,s2,7
    45ee:	bbe1                	j	43c6 <__subdf3+0x380>
    45f0:	fe030613          	addi	a2,t1,-32 # 7fffe0 <_data_lma+0x7f9b1c>
    45f4:	02000793          	li	a5,32
    45f8:	00c85633          	srl	a2,a6,a2
    45fc:	00f30a63          	beq	t1,a5,4610 <__subdf3+0x5ca>
    4600:	04000793          	li	a5,64
    4604:	40678333          	sub	t1,a5,t1
    4608:	00681833          	sll	a6,a6,t1
    460c:	0105e5b3          	or	a1,a1,a6
    4610:	00b035b3          	snez	a1,a1
    4614:	8e4d                	or	a2,a2,a1
    4616:	b4cd                	j	40f8 <__subdf3+0xb2>
    4618:	01c76633          	or	a2,a4,t3
    461c:	00c03633          	snez	a2,a2
    4620:	40c58933          	sub	s2,a1,a2
    4624:	0125b7b3          	sltu	a5,a1,s2
    4628:	40f80733          	sub	a4,a6,a5
    462c:	8446                	mv	s0,a7
    462e:	84b6                	mv	s1,a3
    4630:	bcc9                	j	4102 <__subdf3+0xbc>
    4632:	01c766b3          	or	a3,a4,t3
    4636:	28068963          	beqz	a3,48c8 <__subdf3+0x882>
    463a:	fff78693          	addi	a3,a5,-1 # ff7fffff <_eusrstack+0xdf7f7fff>
    463e:	38068b63          	beqz	a3,49d4 <__subdf3+0x98e>
    4642:	7ff00513          	li	a0,2047
    4646:	40a78e63          	beq	a5,a0,4a62 <__subdf3+0xa1c>
    464a:	87b6                	mv	a5,a3
    464c:	bd75                	j	4508 <__subdf3+0x4c2>
    464e:	20098363          	beqz	s3,4854 <__subdf3+0x80e>
    4652:	478d                	li	a5,3
    4654:	3ef98b63          	beq	s3,a5,4a4a <__subdf3+0xa04>
    4658:	4789                	li	a5,2
    465a:	3cf98f63          	beq	s3,a5,4a38 <__subdf3+0x9f2>
    465e:	44099063          	bnez	s3,4a9e <__subdf3+0xa58>
    4662:	7fe00413          	li	s0,2046
    4666:	4701                	li	a4,0
    4668:	490d                	li	s2,3
    466a:	4315                	li	t1,5
    466c:	01d71793          	slli	a5,a4,0x1d
    4670:	00395613          	srli	a2,s2,0x3
    4674:	7ff00693          	li	a3,2047
    4678:	8e5d                	or	a2,a2,a5
    467a:	00375793          	srli	a5,a4,0x3
    467e:	c4d418e3          	bne	s0,a3,42ce <__subdf3+0x288>
    4682:	8fd1                	or	a5,a5,a2
    4684:	e2078ae3          	beqz	a5,44b8 <__subdf3+0x472>
    4688:	4481                	li	s1,0
    468a:	7ff00413          	li	s0,2047
    468e:	000807b7          	lui	a5,0x80
    4692:	4601                	li	a2,0
    4694:	beb9                	j	41f2 <__subdf3+0x1ac>
    4696:	02000793          	li	a5,32
    469a:	406787b3          	sub	a5,a5,t1
    469e:	0065d933          	srl	s2,a1,t1
    46a2:	00f81633          	sll	a2,a6,a5
    46a6:	00f595b3          	sll	a1,a1,a5
    46aa:	01266633          	or	a2,a2,s2
    46ae:	00685333          	srl	t1,a6,t1
    46b2:	00b03933          	snez	s2,a1
    46b6:	01266633          	or	a2,a2,s2
    46ba:	971a                	add	a4,a4,t1
    46bc:	bdd5                	j	45b0 <__subdf3+0x56a>
    46be:	00be0933          	add	s2,t3,a1
    46c2:	010707b3          	add	a5,a4,a6
    46c6:	01c93633          	sltu	a2,s2,t3
    46ca:	00c78733          	add	a4,a5,a2
    46ce:	00871793          	slli	a5,a4,0x8
    46d2:	4405                	li	s0,1
    46d4:	ce07d7e3          	bgez	a5,43c2 <__subdf3+0x37c>
    46d8:	ff8007b7          	lui	a5,0xff800
    46dc:	17fd                	addi	a5,a5,-1
    46de:	8ff9                	and	a5,a5,a4
    46e0:	00195613          	srli	a2,s2,0x1
    46e4:	01f79913          	slli	s2,a5,0x1f
    46e8:	00c96933          	or	s2,s2,a2
    46ec:	0017d713          	srli	a4,a5,0x1
    46f0:	4409                	li	s0,2
    46f2:	00797793          	andi	a5,s2,7
    46f6:	b9c1                	j	43c6 <__subdf3+0x380>
    46f8:	00536313          	ori	t1,t1,5
    46fc:	ce0487e3          	beqz	s1,43ea <__subdf3+0x3a4>
    4700:	bb65                	j	44b8 <__subdf3+0x472>
    4702:	7ff00793          	li	a5,2047
    4706:	2ef40063          	beq	s0,a5,49e6 <__subdf3+0x9a0>
    470a:	1ef88863          	beq	a7,a5,48fa <__subdf3+0x8b4>
    470e:	1e068c63          	beqz	a3,4906 <__subdf3+0x8c0>
    4712:	00b86833          	or	a6,a6,a1
    4716:	f60819e3          	bnez	a6,4688 <__subdf3+0x642>
    471a:	00351613          	slli	a2,a0,0x3
    471e:	01d71793          	slli	a5,a4,0x1d
    4722:	820d                	srli	a2,a2,0x3
    4724:	8e5d                	or	a2,a2,a5
    4726:	00375793          	srli	a5,a4,0x3
    472a:	bfa1                	j	4682 <__subdf3+0x63c>
    472c:	16078b63          	beqz	a5,48a2 <__subdf3+0x85c>
    4730:	4781                	li	a5,0
    4732:	8742                	mv	a4,a6
    4734:	8e2e                	mv	t3,a1
    4736:	84b6                	mv	s1,a3
    4738:	8972                	mv	s2,t3
    473a:	bc1d                	j	4170 <__subdf3+0x12a>
    473c:	01c76633          	or	a2,a4,t3
    4740:	c20d                	beqz	a2,4762 <__subdf3+0x71c>
    4742:	00400337          	lui	t1,0x400
    4746:	050e                	slli	a0,a0,0x3
    4748:	00677333          	and	t1,a4,t1
    474c:	01d71613          	slli	a2,a4,0x1d
    4750:	810d                	srli	a0,a0,0x3
    4752:	00133313          	seqz	t1,t1
    4756:	8e49                	or	a2,a2,a0
    4758:	00375793          	srli	a5,a4,0x3
    475c:	0312                	slli	t1,t1,0x4
    475e:	b715                	j	4682 <__subdf3+0x63c>
    4760:	84b6                	mv	s1,a3
    4762:	4301                	li	t1,0
    4764:	bb91                	j	44b8 <__subdf3+0x472>
    4766:	40be0933          	sub	s2,t3,a1
    476a:	410707b3          	sub	a5,a4,a6
    476e:	012e3633          	sltu	a2,t3,s2
    4772:	40c78733          	sub	a4,a5,a2
    4776:	00871793          	slli	a5,a4,0x8
    477a:	4405                	li	s0,1
    477c:	9807c7e3          	bltz	a5,410a <__subdf3+0xc4>
    4780:	b189                	j	43c2 <__subdf3+0x37c>
    4782:	01c76633          	or	a2,a4,t3
    4786:	de71                	beqz	a2,4762 <__subdf3+0x71c>
    4788:	00400337          	lui	t1,0x400
    478c:	00351613          	slli	a2,a0,0x3
    4790:	00677333          	and	t1,a4,t1
    4794:	01d71793          	slli	a5,a4,0x1d
    4798:	820d                	srli	a2,a2,0x3
    479a:	00133313          	seqz	t1,t1
    479e:	8e5d                	or	a2,a2,a5
    47a0:	0312                	slli	t1,t1,0x4
    47a2:	00375793          	srli	a5,a4,0x3
    47a6:	bdf1                	j	4682 <__subdf3+0x63c>
    47a8:	01c767b3          	or	a5,a4,t3
    47ac:	ebcd                	bnez	a5,485e <__subdf3+0x818>
    47ae:	4701                	li	a4,0
    47b0:	4e01                	li	t3,0
    47b2:	4301                	li	t1,0
    47b4:	01d71793          	slli	a5,a4,0x1d
    47b8:	003e5613          	srli	a2,t3,0x3
    47bc:	8e5d                	or	a2,a2,a5
    47be:	00375793          	srli	a5,a4,0x3
    47c2:	b5c1                	j	4682 <__subdf3+0x63c>
    47c4:	00f5f613          	andi	a2,a1,15
    47c8:	4511                	li	a0,4
    47ca:	9ca607e3          	beq	a2,a0,4198 <__subdf3+0x152>
    47ce:	ffc5b593          	sltiu	a1,a1,-4
    47d2:	0015c593          	xori	a1,a1,1
    47d6:	96ae                	add	a3,a3,a1
    47d8:	b2c1                	j	4198 <__subdf3+0x152>
    47da:	9a049fe3          	bnez	s1,4198 <__subdf3+0x152>
    47de:	ff85b613          	sltiu	a2,a1,-8
    47e2:	00164613          	xori	a2,a2,1
    47e6:	96b2                	add	a3,a3,a2
    47e8:	ba45                	j	4198 <__subdf3+0x152>
    47ea:	4305                	li	t1,1
    47ec:	9a0486e3          	beqz	s1,4198 <__subdf3+0x152>
    47f0:	b7fd                	j	47de <__subdf3+0x798>
    47f2:	7ff00793          	li	a5,2047
    47f6:	0ef68163          	beq	a3,a5,48d8 <__subdf3+0x892>
    47fa:	95f2                	add	a1,a1,t3
    47fc:	010707b3          	add	a5,a4,a6
    4800:	01c5b733          	sltu	a4,a1,t3
    4804:	97ba                	add	a5,a5,a4
    4806:	01f79613          	slli	a2,a5,0x1f
    480a:	8185                	srli	a1,a1,0x1
    480c:	00b66933          	or	s2,a2,a1
    4810:	0017d713          	srli	a4,a5,0x1
    4814:	8436                	mv	s0,a3
    4816:	00797793          	andi	a5,s2,7
    481a:	b675                	j	43c6 <__subdf3+0x380>
    481c:	41c58933          	sub	s2,a1,t3
    4820:	40e80833          	sub	a6,a6,a4
    4824:	0125b5b3          	sltu	a1,a1,s2
    4828:	40b80a33          	sub	s4,a6,a1
    482c:	84b6                	mv	s1,a3
    482e:	b0d5                	j	4112 <__subdf3+0xcc>
    4830:	7ff00593          	li	a1,2047
    4834:	0eb40163          	beq	s0,a1,4916 <__subdf3+0x8d0>
    4838:	0eb88a63          	beq	a7,a1,492c <__subdf3+0x8e6>
    483c:	c60e82e3          	beqz	t4,44a0 <__subdf3+0x45a>
    4840:	e40794e3          	bnez	a5,4688 <__subdf3+0x642>
    4844:	050e                	slli	a0,a0,0x3
    4846:	01d71613          	slli	a2,a4,0x1d
    484a:	810d                	srli	a0,a0,0x3
    484c:	8e49                	or	a2,a2,a0
    484e:	00375793          	srli	a5,a4,0x3
    4852:	bd05                	j	4682 <__subdf3+0x63c>
    4854:	4315                	li	t1,5
    4856:	b18d                	j	44b8 <__subdf3+0x472>
    4858:	01c767b3          	or	a5,a4,t3
    485c:	d399                	beqz	a5,4762 <__subdf3+0x71c>
    485e:	00400337          	lui	t1,0x400
    4862:	00677333          	and	t1,a4,t1
    4866:	00133313          	seqz	t1,t1
    486a:	0312                	slli	t1,t1,0x4
    486c:	b7a1                	j	47b4 <__subdf3+0x76e>
    486e:	01c76633          	or	a2,a4,t3
    4872:	00c03633          	snez	a2,a2
    4876:	b1c9                	j	4538 <__subdf3+0x4f2>
    4878:	fe078613          	addi	a2,a5,-32 # ff7fffe0 <_eusrstack+0xdf7f7fe0>
    487c:	02000513          	li	a0,32
    4880:	00c75933          	srl	s2,a4,a2
    4884:	00a78a63          	beq	a5,a0,4898 <__subdf3+0x852>
    4888:	04000613          	li	a2,64
    488c:	40f607b3          	sub	a5,a2,a5
    4890:	00f717b3          	sll	a5,a4,a5
    4894:	00fe6e33          	or	t3,t3,a5
    4898:	01c03633          	snez	a2,t3
    489c:	01266633          	or	a2,a2,s2
    48a0:	b341                	j	4620 <__subdf3+0x5da>
    48a2:	ffe98493          	addi	s1,s3,-2
    48a6:	0014b493          	seqz	s1,s1
    48aa:	4601                	li	a2,0
    48ac:	b40d                	j	42ce <__subdf3+0x288>
    48ae:	41c58933          	sub	s2,a1,t3
    48b2:	40e807b3          	sub	a5,a6,a4
    48b6:	0125b5b3          	sltu	a1,a1,s2
    48ba:	40b78733          	sub	a4,a5,a1
    48be:	84b6                	mv	s1,a3
    48c0:	bd5d                	j	4776 <__subdf3+0x730>
    48c2:	8742                	mv	a4,a6
    48c4:	892e                	mv	s2,a1
    48c6:	b04d                	j	4168 <__subdf3+0x122>
    48c8:	7ff00713          	li	a4,2047
    48cc:	0ee78863          	beq	a5,a4,49bc <__subdf3+0x976>
    48d0:	8742                	mv	a4,a6
    48d2:	892e                	mv	s2,a1
    48d4:	843e                	mv	s0,a5
    48d6:	b4d5                	j	43ba <__subdf3+0x374>
    48d8:	f6098ee3          	beqz	s3,4854 <__subdf3+0x80e>
    48dc:	478d                	li	a5,3
    48de:	1cf98563          	beq	s3,a5,4aa8 <__subdf3+0xa62>
    48e2:	4789                	li	a5,2
    48e4:	14f98a63          	beq	s3,a5,4a38 <__subdf3+0x9f2>
    48e8:	1a099b63          	bnez	s3,4a9e <__subdf3+0xa58>
    48ec:	4501                	li	a0,0
    48ee:	4315                	li	t1,5
    48f0:	7fe00413          	li	s0,2046
    48f4:	577d                	li	a4,-1
    48f6:	597d                	li	s2,-1
    48f8:	be09                	j	440a <__subdf3+0x3c4>
    48fa:	00b865b3          	or	a1,a6,a1
    48fe:	10059263          	bnez	a1,4a02 <__subdf3+0x9bc>
    4902:	e0069ce3          	bnez	a3,471a <__subdf3+0x6d4>
    4906:	060e                	slli	a2,a2,0x3
    4908:	01d81793          	slli	a5,a6,0x1d
    490c:	820d                	srli	a2,a2,0x3
    490e:	8e5d                	or	a2,a2,a5
    4910:	00385793          	srli	a5,a6,0x3
    4914:	b3bd                	j	4682 <__subdf3+0x63c>
    4916:	b80e83e3          	beqz	t4,449c <__subdf3+0x456>
    491a:	00971593          	slli	a1,a4,0x9
    491e:	0005c363          	bltz	a1,4924 <__subdf3+0x8de>
    4922:	4341                	li	t1,16
    4924:	7ff00593          	li	a1,2047
    4928:	f0b89ce3          	bne	a7,a1,4840 <__subdf3+0x7fa>
    492c:	12078863          	beqz	a5,4a5c <__subdf3+0xa16>
    4930:	00981793          	slli	a5,a6,0x9
    4934:	0007c363          	bltz	a5,493a <__subdf3+0x8f4>
    4938:	4341                	li	t1,16
    493a:	d40e97e3          	bnez	t4,4688 <__subdf3+0x642>
    493e:	00361793          	slli	a5,a2,0x3
    4942:	838d                	srli	a5,a5,0x3
    4944:	01d81613          	slli	a2,a6,0x1d
    4948:	8e5d                	or	a2,a2,a5
    494a:	84b6                	mv	s1,a3
    494c:	00385793          	srli	a5,a6,0x3
    4950:	bb0d                	j	4682 <__subdf3+0x63c>
    4952:	00c567b3          	or	a5,a0,a2
    4956:	d7b1                	beqz	a5,48a2 <__subdf3+0x85c>
    4958:	8e2a                	mv	t3,a0
    495a:	00757793          	andi	a5,a0,7
    495e:	8732                	mv	a4,a2
    4960:	8972                	mv	s2,t3
    4962:	b039                	j	4170 <__subdf3+0x12a>
    4964:	00b865b3          	or	a1,a6,a1
    4968:	de058ce3          	beqz	a1,4760 <__subdf3+0x71a>
    496c:	00361793          	slli	a5,a2,0x3
    4970:	838d                	srli	a5,a5,0x3
    4972:	01d81613          	slli	a2,a6,0x1d
    4976:	becd                	j	4568 <__subdf3+0x522>
    4978:	fe078613          	addi	a2,a5,-32
    497c:	02000693          	li	a3,32
    4980:	00c75933          	srl	s2,a4,a2
    4984:	00d78a63          	beq	a5,a3,4998 <__subdf3+0x952>
    4988:	04000693          	li	a3,64
    498c:	40f687b3          	sub	a5,a3,a5
    4990:	00f717b3          	sll	a5,a4,a5
    4994:	00fe6e33          	or	t3,t3,a5
    4998:	01c03633          	snez	a2,t3
    499c:	01266633          	or	a2,a2,s2
    49a0:	be61                	j	4538 <__subdf3+0x4f2>
    49a2:	00b86e33          	or	t3,a6,a1
    49a6:	0e0e0263          	beqz	t3,4a8a <__subdf3+0xa44>
    49aa:	00981793          	slli	a5,a6,0x9
    49ae:	8742                	mv	a4,a6
    49b0:	8e2e                	mv	t3,a1
    49b2:	84b6                	mv	s1,a3
    49b4:	0007ce63          	bltz	a5,49d0 <__subdf3+0x98a>
    49b8:	4341                	li	t1,16
    49ba:	bbed                	j	47b4 <__subdf3+0x76e>
    49bc:	00b86e33          	or	t3,a6,a1
    49c0:	0e0e0163          	beqz	t3,4aa2 <__subdf3+0xa5c>
    49c4:	00981793          	slli	a5,a6,0x9
    49c8:	8742                	mv	a4,a6
    49ca:	8e2e                	mv	t3,a1
    49cc:	fe07d6e3          	bgez	a5,49b8 <__subdf3+0x972>
    49d0:	4301                	li	t1,0
    49d2:	b3cd                	j	47b4 <__subdf3+0x76e>
    49d4:	00be0933          	add	s2,t3,a1
    49d8:	010707b3          	add	a5,a4,a6
    49dc:	00b935b3          	sltu	a1,s2,a1
    49e0:	00b78733          	add	a4,a5,a1
    49e4:	b1ed                	j	46ce <__subdf3+0x688>
    49e6:	c6d5                	beqz	a3,4a92 <__subdf3+0xa4c>
    49e8:	00971793          	slli	a5,a4,0x9
    49ec:	0007c363          	bltz	a5,49f2 <__subdf3+0x9ac>
    49f0:	4341                	li	t1,16
    49f2:	7ff00793          	li	a5,2047
    49f6:	d0f89ee3          	bne	a7,a5,4712 <__subdf3+0x6cc>
    49fa:	00b865b3          	or	a1,a6,a1
    49fe:	d0058ee3          	beqz	a1,471a <__subdf3+0x6d4>
    4a02:	00981793          	slli	a5,a6,0x9
    4a06:	0007c363          	bltz	a5,4a0c <__subdf3+0x9c6>
    4a0a:	4341                	li	t1,16
    4a0c:	ee068de3          	beqz	a3,4906 <__subdf3+0x8c0>
    4a10:	b9a5                	j	4688 <__subdf3+0x642>
    4a12:	00b865b3          	or	a1,a6,a1
    4a16:	d40586e3          	beqz	a1,4762 <__subdf3+0x71c>
    4a1a:	00400337          	lui	t1,0x400
    4a1e:	060e                	slli	a2,a2,0x3
    4a20:	00687333          	and	t1,a6,t1
    4a24:	01d81793          	slli	a5,a6,0x1d
    4a28:	820d                	srli	a2,a2,0x3
    4a2a:	00133313          	seqz	t1,t1
    4a2e:	8e5d                	or	a2,a2,a5
    4a30:	0312                	slli	t1,t1,0x4
    4a32:	00385793          	srli	a5,a6,0x3
    4a36:	b1b1                	j	4682 <__subdf3+0x63c>
    4a38:	e0049ee3          	bnez	s1,4854 <__subdf3+0x80e>
    4a3c:	7fe00413          	li	s0,2046
    4a40:	577d                	li	a4,-1
    4a42:	597d                	li	s2,-1
    4a44:	4315                	li	t1,5
    4a46:	f84ff06f          	j	41ca <__subdf3+0x184>
    4a4a:	e00485e3          	beqz	s1,4854 <__subdf3+0x80e>
    4a4e:	7fe00413          	li	s0,2046
    4a52:	4501                	li	a0,0
    4a54:	597d                	li	s2,-1
    4a56:	577d                	li	a4,-1
    4a58:	4315                	li	t1,5
    4a5a:	b2ed                	j	4444 <__subdf3+0x3fe>
    4a5c:	a40e84e3          	beqz	t4,44a4 <__subdf3+0x45e>
    4a60:	b3d5                	j	4844 <__subdf3+0x7fe>
    4a62:	00b865b3          	or	a1,a6,a1
    4a66:	ce058ee3          	beqz	a1,4762 <__subdf3+0x71c>
    4a6a:	00400337          	lui	t1,0x400
    4a6e:	00361793          	slli	a5,a2,0x3
    4a72:	00687333          	and	t1,a6,t1
    4a76:	838d                	srli	a5,a5,0x3
    4a78:	01d81613          	slli	a2,a6,0x1d
    4a7c:	00133313          	seqz	t1,t1
    4a80:	8e5d                	or	a2,a2,a5
    4a82:	0312                	slli	t1,t1,0x4
    4a84:	00385793          	srli	a5,a6,0x3
    4a88:	beed                	j	4682 <__subdf3+0x63c>
    4a8a:	4701                	li	a4,0
    4a8c:	84b6                	mv	s1,a3
    4a8e:	4301                	li	t1,0
    4a90:	b315                	j	47b4 <__subdf3+0x76e>
    4a92:	e6889ae3          	bne	a7,s0,4906 <__subdf3+0x8c0>
    4a96:	00b865b3          	or	a1,a6,a1
    4a9a:	f5a5                	bnez	a1,4a02 <__subdf3+0x9bc>
    4a9c:	b5ad                	j	4906 <__subdf3+0x8c0>
    4a9e:	4315                	li	t1,5
    4aa0:	ba2d                	j	43da <__subdf3+0x394>
    4aa2:	4701                	li	a4,0
    4aa4:	4301                	li	t1,0
    4aa6:	b339                	j	47b4 <__subdf3+0x76e>
    4aa8:	da0486e3          	beqz	s1,4854 <__subdf3+0x80e>
    4aac:	4501                	li	a0,0
    4aae:	7fe00413          	li	s0,2046
    4ab2:	597d                	li	s2,-1
    4ab4:	577d                	li	a4,-1
    4ab6:	4315                	li	t1,5
    4ab8:	b271                	j	4444 <__subdf3+0x3fe>
    4aba:	008005b7          	lui	a1,0x800
    4abe:	8df9                	and	a1,a1,a4
    4ac0:	4401                	li	s0,0
    4ac2:	f0069263          	bnez	a3,41c6 <__subdf3+0x180>
    4ac6:	f0030063          	beqz	t1,41c6 <__subdf3+0x180>
    4aca:	00236313          	ori	t1,t1,2
    4ace:	ef8ff06f          	j	41c6 <__subdf3+0x180>

00004ad2 <__fixdfdi>:
    4ad2:	882a                	mv	a6,a0
    4ad4:	002027f3          	frrm	a5
    4ad8:	00100537          	lui	a0,0x100
    4adc:	0145d793          	srli	a5,a1,0x14
    4ae0:	fff50713          	addi	a4,a0,-1 # fffff <_data_lma+0xf9b3b>
    4ae4:	7ff7f793          	andi	a5,a5,2047
    4ae8:	3fe00893          	li	a7,1022
    4aec:	86c2                	mv	a3,a6
    4aee:	8f6d                	and	a4,a4,a1
    4af0:	01f5d613          	srli	a2,a1,0x1f
    4af4:	02f8c263          	blt	a7,a5,4b18 <__fixdfdi+0x46>
    4af8:	eb91                	bnez	a5,4b0c <__fixdfdi+0x3a>
    4afa:	01076733          	or	a4,a4,a6
    4afe:	4501                	li	a0,0
    4b00:	4581                	li	a1,0
    4b02:	cf3d                	beqz	a4,4b80 <__fixdfdi+0xae>
    4b04:	4685                	li	a3,1
    4b06:	0016a073          	csrs	fflags,a3
    4b0a:	8082                	ret
    4b0c:	4501                	li	a0,0
    4b0e:	4581                	li	a1,0
    4b10:	4685                	li	a3,1
    4b12:	0016a073          	csrs	fflags,a3
    4b16:	bfd5                	j	4b0a <__fixdfdi+0x38>
    4b18:	43d00593          	li	a1,1085
    4b1c:	02f5da63          	bge	a1,a5,4b50 <__fixdfdi+0x7e>
    4b20:	4585                	li	a1,1
    4b22:	8d91                	sub	a1,a1,a2
    4b24:	40b006b3          	neg	a3,a1
    4b28:	41f5d513          	srai	a0,a1,0x1f
    4b2c:	800005b7          	lui	a1,0x80000
    4b30:	8d89                	sub	a1,a1,a0
    4b32:	00d038b3          	snez	a7,a3
    4b36:	8536                	mv	a0,a3
    4b38:	411585b3          	sub	a1,a1,a7
    4b3c:	c241                	beqz	a2,4bbc <__fixdfdi+0xea>
    4b3e:	43e00613          	li	a2,1086
    4b42:	46c1                	li	a3,16
    4b44:	fcc791e3          	bne	a5,a2,4b06 <__fixdfdi+0x34>
    4b48:	01076733          	or	a4,a4,a6
    4b4c:	ff4d                	bnez	a4,4b06 <__fixdfdi+0x34>
    4b4e:	8082                	ret
    4b50:	43200893          	li	a7,1074
    4b54:	00a765b3          	or	a1,a4,a0
    4b58:	02f8d563          	bge	a7,a5,4b82 <__fixdfdi+0xb0>
    4b5c:	bad78713          	addi	a4,a5,-1107
    4b60:	bcd78793          	addi	a5,a5,-1075
    4b64:	08074363          	bltz	a4,4bea <__fixdfdi+0x118>
    4b68:	00e815b3          	sll	a1,a6,a4
    4b6c:	4501                	li	a0,0
    4b6e:	de51                	beqz	a2,4b0a <__fixdfdi+0x38>
    4b70:	40a00533          	neg	a0,a0
    4b74:	00a037b3          	snez	a5,a0
    4b78:	40b005b3          	neg	a1,a1
    4b7c:	8d9d                	sub	a1,a1,a5
    4b7e:	8082                	ret
    4b80:	8082                	ret
    4b82:	43300713          	li	a4,1075
    4b86:	8f1d                	sub	a4,a4,a5
    4b88:	457d                	li	a0,31
    4b8a:	02e54d63          	blt	a0,a4,4bc4 <__fixdfdi+0xf2>
    4b8e:	bed78793          	addi	a5,a5,-1043
    4b92:	00f816b3          	sll	a3,a6,a5
    4b96:	00e85533          	srl	a0,a6,a4
    4b9a:	00f597b3          	sll	a5,a1,a5
    4b9e:	00d036b3          	snez	a3,a3
    4ba2:	8d5d                	or	a0,a0,a5
    4ba4:	00e5d5b3          	srl	a1,a1,a4
    4ba8:	ca01                	beqz	a2,4bb8 <__fixdfdi+0xe6>
    4baa:	40a00533          	neg	a0,a0
    4bae:	00a037b3          	snez	a5,a0
    4bb2:	40b005b3          	neg	a1,a1
    4bb6:	8d9d                	sub	a1,a1,a5
    4bb8:	f6b9                	bnez	a3,4b06 <__fixdfdi+0x34>
    4bba:	8082                	ret
    4bbc:	46c1                	li	a3,16
    4bbe:	0016a073          	csrs	fflags,a3
    4bc2:	b7a1                	j	4b0a <__fixdfdi+0x38>
    4bc4:	02000513          	li	a0,32
    4bc8:	00a70863          	beq	a4,a0,4bd8 <__fixdfdi+0x106>
    4bcc:	c0d78693          	addi	a3,a5,-1011
    4bd0:	00d596b3          	sll	a3,a1,a3
    4bd4:	0106e6b3          	or	a3,a3,a6
    4bd8:	41300513          	li	a0,1043
    4bdc:	8d1d                	sub	a0,a0,a5
    4bde:	00a5d533          	srl	a0,a1,a0
    4be2:	00d036b3          	snez	a3,a3
    4be6:	4581                	li	a1,0
    4be8:	b7c1                	j	4ba8 <__fixdfdi+0xd6>
    4bea:	46fd                	li	a3,31
    4bec:	00185713          	srli	a4,a6,0x1
    4bf0:	8e9d                	sub	a3,a3,a5
    4bf2:	00d75733          	srl	a4,a4,a3
    4bf6:	00f595b3          	sll	a1,a1,a5
    4bfa:	8dd9                	or	a1,a1,a4
    4bfc:	00f81533          	sll	a0,a6,a5
    4c00:	b7bd                	j	4b6e <__fixdfdi+0x9c>

00004c02 <__floatdidf>:
    4c02:	1101                	addi	sp,sp,-32
    4c04:	ce06                	sw	ra,28(sp)
    4c06:	cc22                	sw	s0,24(sp)
    4c08:	ca26                	sw	s1,20(sp)
    4c0a:	c84a                	sw	s2,16(sp)
    4c0c:	c64e                	sw	s3,12(sp)
    4c0e:	c452                	sw	s4,8(sp)
    4c10:	c256                	sw	s5,4(sp)
    4c12:	00202af3          	frrm	s5
    4c16:	00b567b3          	or	a5,a0,a1
    4c1a:	c3a1                	beqz	a5,4c5a <__floatdidf+0x58>
    4c1c:	89aa                	mv	s3,a0
    4c1e:	8a2e                	mv	s4,a1
    4c20:	01f5d913          	srli	s2,a1,0x1f
    4c24:	0605c163          	bltz	a1,4c86 <__floatdidf+0x84>
    4c28:	842e                	mv	s0,a1
    4c2a:	84d2                	mv	s1,s4
    4c2c:	060a0a63          	beqz	s4,4ca0 <__floatdidf+0x9e>
    4c30:	8552                	mv	a0,s4
    4c32:	2cd1                	jal	4f06 <__clzsi2>
    4c34:	43e00693          	li	a3,1086
    4c38:	8e89                	sub	a3,a3,a0
    4c3a:	43300793          	li	a5,1075
    4c3e:	08d7ce63          	blt	a5,a3,4cda <__floatdidf+0xd8>
    4c42:	00ca1793          	slli	a5,s4,0xc
    4c46:	462d                	li	a2,11
    4c48:	874e                	mv	a4,s3
    4c4a:	7ff6f693          	andi	a3,a3,2047
    4c4e:	83b1                	srli	a5,a5,0xc
    4c50:	00a65963          	bge	a2,a0,4c62 <__floatdidf+0x60>
    4c54:	ff550613          	addi	a2,a0,-11
    4c58:	a09d                	j	4cbe <__floatdidf+0xbc>
    4c5a:	4901                	li	s2,0
    4c5c:	4681                	li	a3,0
    4c5e:	4781                	li	a5,0
    4c60:	4701                	li	a4,0
    4c62:	07b2                	slli	a5,a5,0xc
    4c64:	06d2                	slli	a3,a3,0x14
    4c66:	83b1                	srli	a5,a5,0xc
    4c68:	01f91613          	slli	a2,s2,0x1f
    4c6c:	8fd5                	or	a5,a5,a3
    4c6e:	8fd1                	or	a5,a5,a2
    4c70:	853a                	mv	a0,a4
    4c72:	85be                	mv	a1,a5
    4c74:	40f2                	lw	ra,28(sp)
    4c76:	4462                	lw	s0,24(sp)
    4c78:	44d2                	lw	s1,20(sp)
    4c7a:	4942                	lw	s2,16(sp)
    4c7c:	49b2                	lw	s3,12(sp)
    4c7e:	4a22                	lw	s4,8(sp)
    4c80:	4a92                	lw	s5,4(sp)
    4c82:	6105                	addi	sp,sp,32
    4c84:	8082                	ret
    4c86:	40a00533          	neg	a0,a0
    4c8a:	00a03733          	snez	a4,a0
    4c8e:	40b00a33          	neg	s4,a1
    4c92:	40ea0a33          	sub	s4,s4,a4
    4c96:	89aa                	mv	s3,a0
    4c98:	842e                	mv	s0,a1
    4c9a:	84d2                	mv	s1,s4
    4c9c:	f80a1ae3          	bnez	s4,4c30 <__floatdidf+0x2e>
    4ca0:	854e                	mv	a0,s3
    4ca2:	2495                	jal	4f06 <__clzsi2>
    4ca4:	862a                	mv	a2,a0
    4ca6:	43e00693          	li	a3,1086
    4caa:	02050513          	addi	a0,a0,32
    4cae:	8e89                	sub	a3,a3,a0
    4cb0:	02a00793          	li	a5,42
    4cb4:	7ff6f693          	andi	a3,a3,2047
    4cb8:	0ca7c263          	blt	a5,a0,4d7c <__floatdidf+0x17a>
    4cbc:	0655                	addi	a2,a2,21
    4cbe:	02b00713          	li	a4,43
    4cc2:	8f09                	sub	a4,a4,a0
    4cc4:	00ca17b3          	sll	a5,s4,a2
    4cc8:	00e9d733          	srl	a4,s3,a4
    4ccc:	8f5d                	or	a4,a4,a5
    4cce:	00c71793          	slli	a5,a4,0xc
    4cd2:	83b1                	srli	a5,a5,0xc
    4cd4:	00c99733          	sll	a4,s3,a2
    4cd8:	b769                	j	4c62 <__floatdidf+0x60>
    4cda:	43600793          	li	a5,1078
    4cde:	02d7da63          	bge	a5,a3,4d12 <__floatdidf+0x110>
    4ce2:	44a1                	li	s1,8
    4ce4:	8c89                	sub	s1,s1,a0
    4ce6:	fe048613          	addi	a2,s1,-32
    4cea:	0c064f63          	bltz	a2,4dc8 <__floatdidf+0x1c6>
    4cee:	00ca5633          	srl	a2,s4,a2
    4cf2:	4481                	li	s1,0
    4cf4:	01850713          	addi	a4,a0,24
    4cf8:	03850793          	addi	a5,a0,56
    4cfc:	0a074963          	bltz	a4,4dae <__floatdidf+0x1ac>
    4d00:	00e99a33          	sll	s4,s3,a4
    4d04:	4981                	li	s3,0
    4d06:	0149e9b3          	or	s3,s3,s4
    4d0a:	013039b3          	snez	s3,s3
    4d0e:	013669b3          	or	s3,a2,s3
    4d12:	47a1                	li	a5,8
    4d14:	04a7c763          	blt	a5,a0,4d62 <__floatdidf+0x160>
    4d18:	ff800737          	lui	a4,0xff800
    4d1c:	177d                	addi	a4,a4,-1
    4d1e:	0079f793          	andi	a5,s3,7
    4d22:	8cf9                	and	s1,s1,a4
    4d24:	c7a5                	beqz	a5,4d8c <__floatdidf+0x18a>
    4d26:	4789                	li	a5,2
    4d28:	0afa8c63          	beq	s5,a5,4de0 <__floatdidf+0x1de>
    4d2c:	478d                	li	a5,3
    4d2e:	0efa8563          	beq	s5,a5,4e18 <__floatdidf+0x216>
    4d32:	0c0a8b63          	beqz	s5,4e08 <__floatdidf+0x206>
    4d36:	00949713          	slli	a4,s1,0x9
    4d3a:	7ff6f693          	andi	a3,a3,2047
    4d3e:	01469593          	slli	a1,a3,0x14
    4d42:	00c75693          	srli	a3,a4,0xc
    4d46:	8ecd                	or	a3,a3,a1
    4d48:	0039d993          	srli	s3,s3,0x3
    4d4c:	01f91613          	slli	a2,s2,0x1f
    4d50:	04f6                	slli	s1,s1,0x1d
    4d52:	0134e4b3          	or	s1,s1,s3
    4d56:	8e55                	or	a2,a2,a3
    4d58:	8526                	mv	a0,s1
    4d5a:	85b2                	mv	a1,a2
    4d5c:	0010e073          	csrsi	fflags,1
    4d60:	bf11                	j	4c74 <__floatdidf+0x72>
    4d62:	02800793          	li	a5,40
    4d66:	ff850713          	addi	a4,a0,-8
    4d6a:	8f89                	sub	a5,a5,a0
    4d6c:	00f9d7b3          	srl	a5,s3,a5
    4d70:	00e494b3          	sll	s1,s1,a4
    4d74:	8cdd                	or	s1,s1,a5
    4d76:	00e999b3          	sll	s3,s3,a4
    4d7a:	bf79                	j	4d18 <__floatdidf+0x116>
    4d7c:	ff560713          	addi	a4,a2,-11 # fffff5 <_data_lma+0xff9b31>
    4d80:	00e997b3          	sll	a5,s3,a4
    4d84:	07b2                	slli	a5,a5,0xc
    4d86:	83b1                	srli	a5,a5,0xc
    4d88:	4701                	li	a4,0
    4d8a:	bde1                	j	4c62 <__floatdidf+0x60>
    4d8c:	00949713          	slli	a4,s1,0x9
    4d90:	7ff6f693          	andi	a3,a3,2047
    4d94:	06d2                	slli	a3,a3,0x14
    4d96:	8331                	srli	a4,a4,0xc
    4d98:	0039d513          	srli	a0,s3,0x3
    4d9c:	04f6                	slli	s1,s1,0x1d
    4d9e:	01f91793          	slli	a5,s2,0x1f
    4da2:	8ed9                	or	a3,a3,a4
    4da4:	8cc9                	or	s1,s1,a0
    4da6:	8fd5                	or	a5,a5,a3
    4da8:	8526                	mv	a0,s1
    4daa:	85be                	mv	a1,a5
    4dac:	b5e1                	j	4c74 <__floatdidf+0x72>
    4dae:	45fd                	li	a1,31
    4db0:	0019d713          	srli	a4,s3,0x1
    4db4:	8d9d                	sub	a1,a1,a5
    4db6:	00b75733          	srl	a4,a4,a1
    4dba:	00fa1a33          	sll	s4,s4,a5
    4dbe:	01476a33          	or	s4,a4,s4
    4dc2:	00f999b3          	sll	s3,s3,a5
    4dc6:	b781                	j	4d06 <__floatdidf+0x104>
    4dc8:	477d                	li	a4,31
    4dca:	8f05                	sub	a4,a4,s1
    4dcc:	001a1793          	slli	a5,s4,0x1
    4dd0:	0099d633          	srl	a2,s3,s1
    4dd4:	00e797b3          	sll	a5,a5,a4
    4dd8:	8e5d                	or	a2,a2,a5
    4dda:	009a54b3          	srl	s1,s4,s1
    4dde:	bf19                	j	4cf4 <__floatdidf+0xf2>
    4de0:	f4045be3          	bgez	s0,4d36 <__floatdidf+0x134>
    4de4:	00898713          	addi	a4,s3,8
    4de8:	013739b3          	sltu	s3,a4,s3
    4dec:	94ce                	add	s1,s1,s3
    4dee:	008007b7          	lui	a5,0x800
    4df2:	8fe5                	and	a5,a5,s1
    4df4:	89ba                	mv	s3,a4
    4df6:	d3a1                	beqz	a5,4d36 <__floatdidf+0x134>
    4df8:	ff8007b7          	lui	a5,0xff800
    4dfc:	17fd                	addi	a5,a5,-1
    4dfe:	43f00693          	li	a3,1087
    4e02:	8cfd                	and	s1,s1,a5
    4e04:	8e89                	sub	a3,a3,a0
    4e06:	bf05                	j	4d36 <__floatdidf+0x134>
    4e08:	00f9f793          	andi	a5,s3,15
    4e0c:	4711                	li	a4,4
    4e0e:	f2e784e3          	beq	a5,a4,4d36 <__floatdidf+0x134>
    4e12:	00498713          	addi	a4,s3,4
    4e16:	bfc9                	j	4de8 <__floatdidf+0x1e6>
    4e18:	fc0456e3          	bgez	s0,4de4 <__floatdidf+0x1e2>
    4e1c:	bf29                	j	4d36 <__floatdidf+0x134>

00004e1e <__extendsfdf2>:
    4e1e:	1141                	addi	sp,sp,-16
    4e20:	c606                	sw	ra,12(sp)
    4e22:	c422                	sw	s0,8(sp)
    4e24:	c226                	sw	s1,4(sp)
    4e26:	e00507d3          	fmv.x.w	a5,fa0
    4e2a:	00202773          	frrm	a4
    4e2e:	0177d513          	srli	a0,a5,0x17
    4e32:	0ff57513          	andi	a0,a0,255
    4e36:	00150713          	addi	a4,a0,1
    4e3a:	00979413          	slli	s0,a5,0x9
    4e3e:	0fe77713          	andi	a4,a4,254
    4e42:	8025                	srli	s0,s0,0x9
    4e44:	01f7d493          	srli	s1,a5,0x1f
    4e48:	c31d                	beqz	a4,4e6e <__extendsfdf2+0x50>
    4e4a:	00345793          	srli	a5,s0,0x3
    4e4e:	38050513          	addi	a0,a0,896
    4e52:	0476                	slli	s0,s0,0x1d
    4e54:	07b2                	slli	a5,a5,0xc
    4e56:	0552                	slli	a0,a0,0x14
    4e58:	83b1                	srli	a5,a5,0xc
    4e5a:	8fc9                	or	a5,a5,a0
    4e5c:	04fe                	slli	s1,s1,0x1f
    4e5e:	8fc5                	or	a5,a5,s1
    4e60:	8522                	mv	a0,s0
    4e62:	85be                	mv	a1,a5
    4e64:	40b2                	lw	ra,12(sp)
    4e66:	4422                	lw	s0,8(sp)
    4e68:	4492                	lw	s1,4(sp)
    4e6a:	0141                	addi	sp,sp,16
    4e6c:	8082                	ret
    4e6e:	e90d                	bnez	a0,4ea0 <__extendsfdf2+0x82>
    4e70:	c435                	beqz	s0,4edc <__extendsfdf2+0xbe>
    4e72:	8522                	mv	a0,s0
    4e74:	2849                	jal	4f06 <__clzsi2>
    4e76:	47a9                	li	a5,10
    4e78:	08a7c163          	blt	a5,a0,4efa <__extendsfdf2+0xdc>
    4e7c:	472d                	li	a4,11
    4e7e:	8f09                	sub	a4,a4,a0
    4e80:	01550793          	addi	a5,a0,21
    4e84:	00e45733          	srl	a4,s0,a4
    4e88:	00f41433          	sll	s0,s0,a5
    4e8c:	00c71793          	slli	a5,a4,0xc
    4e90:	38900713          	li	a4,905
    4e94:	40a70533          	sub	a0,a4,a0
    4e98:	83b1                	srli	a5,a5,0xc
    4e9a:	7ff57513          	andi	a0,a0,2047
    4e9e:	bf5d                	j	4e54 <__extendsfdf2+0x36>
    4ea0:	c815                	beqz	s0,4ed4 <__extendsfdf2+0xb6>
    4ea2:	00080737          	lui	a4,0x80
    4ea6:	00345793          	srli	a5,s0,0x3
    4eaa:	8fd9                	or	a5,a5,a4
    4eac:	00100737          	lui	a4,0x100
    4eb0:	177d                	addi	a4,a4,-1
    4eb2:	00941613          	slli	a2,s0,0x9
    4eb6:	01d41693          	slli	a3,s0,0x1d
    4eba:	8ff9                	and	a5,a5,a4
    4ebc:	02065363          	bgez	a2,4ee2 <__extendsfdf2+0xc4>
    4ec0:	8f7d                	and	a4,a4,a5
    4ec2:	01f49793          	slli	a5,s1,0x1f
    4ec6:	7ff004b7          	lui	s1,0x7ff00
    4eca:	8cd9                	or	s1,s1,a4
    4ecc:	8fc5                	or	a5,a5,s1
    4ece:	8536                	mv	a0,a3
    4ed0:	85be                	mv	a1,a5
    4ed2:	bf49                	j	4e64 <__extendsfdf2+0x46>
    4ed4:	7ff00513          	li	a0,2047
    4ed8:	4781                	li	a5,0
    4eda:	bfad                	j	4e54 <__extendsfdf2+0x36>
    4edc:	4501                	li	a0,0
    4ede:	4781                	li	a5,0
    4ee0:	bf95                	j	4e54 <__extendsfdf2+0x36>
    4ee2:	8f7d                	and	a4,a4,a5
    4ee4:	01f49793          	slli	a5,s1,0x1f
    4ee8:	7ff004b7          	lui	s1,0x7ff00
    4eec:	8f45                	or	a4,a4,s1
    4eee:	8fd9                	or	a5,a5,a4
    4ef0:	8536                	mv	a0,a3
    4ef2:	85be                	mv	a1,a5
    4ef4:	00186073          	csrsi	fflags,16
    4ef8:	b7b5                	j	4e64 <__extendsfdf2+0x46>
    4efa:	ff550713          	addi	a4,a0,-11
    4efe:	00e41733          	sll	a4,s0,a4
    4f02:	4401                	li	s0,0
    4f04:	b761                	j	4e8c <__extendsfdf2+0x6e>

00004f06 <__clzsi2>:
    4f06:	67c1                	lui	a5,0x10
    4f08:	02f57c63          	bgeu	a0,a5,4f40 <__clzsi2+0x3a>
    4f0c:	0ff00793          	li	a5,255
    4f10:	02000713          	li	a4,32
    4f14:	00a7eb63          	bltu	a5,a0,4f2a <__clzsi2+0x24>
    4f18:	00001797          	auipc	a5,0x1
    4f1c:	44c78793          	addi	a5,a5,1100 # 6364 <__clz_tab>
    4f20:	97aa                	add	a5,a5,a0
    4f22:	2388                	lbu	a0,0(a5)
    4f24:	40a70533          	sub	a0,a4,a0
    4f28:	8082                	ret
    4f2a:	8121                	srli	a0,a0,0x8
    4f2c:	00001797          	auipc	a5,0x1
    4f30:	43878793          	addi	a5,a5,1080 # 6364 <__clz_tab>
    4f34:	97aa                	add	a5,a5,a0
    4f36:	2388                	lbu	a0,0(a5)
    4f38:	4761                	li	a4,24
    4f3a:	40a70533          	sub	a0,a4,a0
    4f3e:	8082                	ret
    4f40:	010007b7          	lui	a5,0x1000
    4f44:	00f56d63          	bltu	a0,a5,4f5e <__clzsi2+0x58>
    4f48:	8161                	srli	a0,a0,0x18
    4f4a:	00001797          	auipc	a5,0x1
    4f4e:	41a78793          	addi	a5,a5,1050 # 6364 <__clz_tab>
    4f52:	97aa                	add	a5,a5,a0
    4f54:	2388                	lbu	a0,0(a5)
    4f56:	4721                	li	a4,8
    4f58:	40a70533          	sub	a0,a4,a0
    4f5c:	8082                	ret
    4f5e:	8141                	srli	a0,a0,0x10
    4f60:	00001797          	auipc	a5,0x1
    4f64:	40478793          	addi	a5,a5,1028 # 6364 <__clz_tab>
    4f68:	97aa                	add	a5,a5,a0
    4f6a:	2388                	lbu	a0,0(a5)
    4f6c:	4741                	li	a4,16
    4f6e:	40a70533          	sub	a0,a4,a0
    4f72:	8082                	ret

00004f74 <_puts_r>:
    4f74:	1101                	addi	sp,sp,-32
    4f76:	ca26                	sw	s1,20(sp)
    4f78:	c84a                	sw	s2,16(sp)
    4f7a:	ce06                	sw	ra,28(sp)
    4f7c:	cc22                	sw	s0,24(sp)
    4f7e:	c64e                	sw	s3,12(sp)
    4f80:	c452                	sw	s4,8(sp)
    4f82:	84aa                	mv	s1,a0
    4f84:	892e                	mv	s2,a1
    4f86:	c501                	beqz	a0,4f8e <_puts_r+0x1a>
    4f88:	4d1c                	lw	a5,24(a0)
    4f8a:	e391                	bnez	a5,4f8e <_puts_r+0x1a>
    4f8c:	21f1                	jal	5458 <__sinit>
    4f8e:	4c9c                	lw	a5,24(s1)
    4f90:	4480                	lw	s0,8(s1)
    4f92:	e399                	bnez	a5,4f98 <_puts_r+0x24>
    4f94:	8526                	mv	a0,s1
    4f96:	21c9                	jal	5458 <__sinit>
    4f98:	00001797          	auipc	a5,0x1
    4f9c:	4ec78793          	addi	a5,a5,1260 # 6484 <__sf_fake_stdin>
    4fa0:	02f41b63          	bne	s0,a5,4fd6 <_puts_r+0x62>
    4fa4:	40c0                	lw	s0,4(s1)
    4fa6:	245e                	lhu	a5,12(s0)
    4fa8:	8ba1                	andi	a5,a5,8
    4faa:	c7b1                	beqz	a5,4ff6 <_puts_r+0x82>
    4fac:	481c                	lw	a5,16(s0)
    4fae:	c7a1                	beqz	a5,4ff6 <_puts_r+0x82>
    4fb0:	59fd                	li	s3,-1
    4fb2:	4a29                	li	s4,10
    4fb4:	441c                	lw	a5,8(s0)
    4fb6:	00094583          	lbu	a1,0(s2)
    4fba:	17fd                	addi	a5,a5,-1
    4fbc:	e9b1                	bnez	a1,5010 <_puts_r+0x9c>
    4fbe:	c41c                	sw	a5,8(s0)
    4fc0:	0607dd63          	bgez	a5,503a <_puts_r+0xc6>
    4fc4:	8622                	mv	a2,s0
    4fc6:	45a9                	li	a1,10
    4fc8:	8526                	mv	a0,s1
    4fca:	2069                	jal	5054 <__swbuf_r>
    4fcc:	57fd                	li	a5,-1
    4fce:	02f50863          	beq	a0,a5,4ffe <_puts_r+0x8a>
    4fd2:	4529                	li	a0,10
    4fd4:	a035                	j	5000 <_puts_r+0x8c>
    4fd6:	00001797          	auipc	a5,0x1
    4fda:	4ce78793          	addi	a5,a5,1230 # 64a4 <__sf_fake_stdout>
    4fde:	00f41463          	bne	s0,a5,4fe6 <_puts_r+0x72>
    4fe2:	4480                	lw	s0,8(s1)
    4fe4:	b7c9                	j	4fa6 <_puts_r+0x32>
    4fe6:	00001797          	auipc	a5,0x1
    4fea:	47e78793          	addi	a5,a5,1150 # 6464 <__sf_fake_stderr>
    4fee:	faf41ce3          	bne	s0,a5,4fa6 <_puts_r+0x32>
    4ff2:	44c0                	lw	s0,12(s1)
    4ff4:	bf4d                	j	4fa6 <_puts_r+0x32>
    4ff6:	85a2                	mv	a1,s0
    4ff8:	8526                	mv	a0,s1
    4ffa:	2a19                	jal	5110 <__swsetup_r>
    4ffc:	d955                	beqz	a0,4fb0 <_puts_r+0x3c>
    4ffe:	557d                	li	a0,-1
    5000:	40f2                	lw	ra,28(sp)
    5002:	4462                	lw	s0,24(sp)
    5004:	44d2                	lw	s1,20(sp)
    5006:	4942                	lw	s2,16(sp)
    5008:	49b2                	lw	s3,12(sp)
    500a:	4a22                	lw	s4,8(sp)
    500c:	6105                	addi	sp,sp,32
    500e:	8082                	ret
    5010:	c41c                	sw	a5,8(s0)
    5012:	0905                	addi	s2,s2,1
    5014:	0007d763          	bgez	a5,5022 <_puts_r+0xae>
    5018:	4c18                	lw	a4,24(s0)
    501a:	00e7ca63          	blt	a5,a4,502e <_puts_r+0xba>
    501e:	01458863          	beq	a1,s4,502e <_puts_r+0xba>
    5022:	401c                	lw	a5,0(s0)
    5024:	00178713          	addi	a4,a5,1
    5028:	c018                	sw	a4,0(s0)
    502a:	a38c                	sb	a1,0(a5)
    502c:	b761                	j	4fb4 <_puts_r+0x40>
    502e:	8622                	mv	a2,s0
    5030:	8526                	mv	a0,s1
    5032:	200d                	jal	5054 <__swbuf_r>
    5034:	f93510e3          	bne	a0,s3,4fb4 <_puts_r+0x40>
    5038:	b7d9                	j	4ffe <_puts_r+0x8a>
    503a:	401c                	lw	a5,0(s0)
    503c:	00178713          	addi	a4,a5,1
    5040:	c018                	sw	a4,0(s0)
    5042:	4729                	li	a4,10
    5044:	a398                	sb	a4,0(a5)
    5046:	b771                	j	4fd2 <_puts_r+0x5e>

00005048 <puts>:
    5048:	80c18793          	addi	a5,gp,-2036 # 2000007c <_impure_ptr>
    504c:	85aa                	mv	a1,a0
    504e:	4388                	lw	a0,0(a5)
    5050:	f25ff06f          	j	4f74 <_puts_r>

00005054 <__swbuf_r>:
    5054:	1101                	addi	sp,sp,-32
    5056:	cc22                	sw	s0,24(sp)
    5058:	ca26                	sw	s1,20(sp)
    505a:	c84a                	sw	s2,16(sp)
    505c:	ce06                	sw	ra,28(sp)
    505e:	c64e                	sw	s3,12(sp)
    5060:	84aa                	mv	s1,a0
    5062:	892e                	mv	s2,a1
    5064:	8432                	mv	s0,a2
    5066:	c501                	beqz	a0,506e <__swbuf_r+0x1a>
    5068:	4d1c                	lw	a5,24(a0)
    506a:	e391                	bnez	a5,506e <__swbuf_r+0x1a>
    506c:	26f5                	jal	5458 <__sinit>
    506e:	00001797          	auipc	a5,0x1
    5072:	41678793          	addi	a5,a5,1046 # 6484 <__sf_fake_stdin>
    5076:	06f41763          	bne	s0,a5,50e4 <__swbuf_r+0x90>
    507a:	40c0                	lw	s0,4(s1)
    507c:	4c1c                	lw	a5,24(s0)
    507e:	c41c                	sw	a5,8(s0)
    5080:	245e                	lhu	a5,12(s0)
    5082:	8ba1                	andi	a5,a5,8
    5084:	c3c1                	beqz	a5,5104 <__swbuf_r+0xb0>
    5086:	481c                	lw	a5,16(s0)
    5088:	cfb5                	beqz	a5,5104 <__swbuf_r+0xb0>
    508a:	481c                	lw	a5,16(s0)
    508c:	4008                	lw	a0,0(s0)
    508e:	0ff97993          	andi	s3,s2,255
    5092:	0ff97913          	andi	s2,s2,255
    5096:	8d1d                	sub	a0,a0,a5
    5098:	485c                	lw	a5,20(s0)
    509a:	00f54663          	blt	a0,a5,50a6 <__swbuf_r+0x52>
    509e:	85a2                	mv	a1,s0
    50a0:	8526                	mv	a0,s1
    50a2:	2c69                	jal	533c <_fflush_r>
    50a4:	e525                	bnez	a0,510c <__swbuf_r+0xb8>
    50a6:	441c                	lw	a5,8(s0)
    50a8:	0505                	addi	a0,a0,1
    50aa:	17fd                	addi	a5,a5,-1
    50ac:	c41c                	sw	a5,8(s0)
    50ae:	401c                	lw	a5,0(s0)
    50b0:	00178713          	addi	a4,a5,1
    50b4:	c018                	sw	a4,0(s0)
    50b6:	01378023          	sb	s3,0(a5)
    50ba:	485c                	lw	a5,20(s0)
    50bc:	00a78863          	beq	a5,a0,50cc <__swbuf_r+0x78>
    50c0:	245e                	lhu	a5,12(s0)
    50c2:	8b85                	andi	a5,a5,1
    50c4:	cb81                	beqz	a5,50d4 <__swbuf_r+0x80>
    50c6:	47a9                	li	a5,10
    50c8:	00f91663          	bne	s2,a5,50d4 <__swbuf_r+0x80>
    50cc:	85a2                	mv	a1,s0
    50ce:	8526                	mv	a0,s1
    50d0:	24b5                	jal	533c <_fflush_r>
    50d2:	ed0d                	bnez	a0,510c <__swbuf_r+0xb8>
    50d4:	40f2                	lw	ra,28(sp)
    50d6:	4462                	lw	s0,24(sp)
    50d8:	854a                	mv	a0,s2
    50da:	44d2                	lw	s1,20(sp)
    50dc:	4942                	lw	s2,16(sp)
    50de:	49b2                	lw	s3,12(sp)
    50e0:	6105                	addi	sp,sp,32
    50e2:	8082                	ret
    50e4:	00001797          	auipc	a5,0x1
    50e8:	3c078793          	addi	a5,a5,960 # 64a4 <__sf_fake_stdout>
    50ec:	00f41463          	bne	s0,a5,50f4 <__swbuf_r+0xa0>
    50f0:	4480                	lw	s0,8(s1)
    50f2:	b769                	j	507c <__swbuf_r+0x28>
    50f4:	00001797          	auipc	a5,0x1
    50f8:	37078793          	addi	a5,a5,880 # 6464 <__sf_fake_stderr>
    50fc:	f8f410e3          	bne	s0,a5,507c <__swbuf_r+0x28>
    5100:	44c0                	lw	s0,12(s1)
    5102:	bfad                	j	507c <__swbuf_r+0x28>
    5104:	85a2                	mv	a1,s0
    5106:	8526                	mv	a0,s1
    5108:	2021                	jal	5110 <__swsetup_r>
    510a:	d141                	beqz	a0,508a <__swbuf_r+0x36>
    510c:	597d                	li	s2,-1
    510e:	b7d9                	j	50d4 <__swbuf_r+0x80>

00005110 <__swsetup_r>:
    5110:	1141                	addi	sp,sp,-16
    5112:	80c18793          	addi	a5,gp,-2036 # 2000007c <_impure_ptr>
    5116:	c226                	sw	s1,4(sp)
    5118:	4384                	lw	s1,0(a5)
    511a:	c422                	sw	s0,8(sp)
    511c:	c04a                	sw	s2,0(sp)
    511e:	c606                	sw	ra,12(sp)
    5120:	892a                	mv	s2,a0
    5122:	842e                	mv	s0,a1
    5124:	c489                	beqz	s1,512e <__swsetup_r+0x1e>
    5126:	4c9c                	lw	a5,24(s1)
    5128:	e399                	bnez	a5,512e <__swsetup_r+0x1e>
    512a:	8526                	mv	a0,s1
    512c:	2635                	jal	5458 <__sinit>
    512e:	00001797          	auipc	a5,0x1
    5132:	35678793          	addi	a5,a5,854 # 6484 <__sf_fake_stdin>
    5136:	02f41b63          	bne	s0,a5,516c <__swsetup_r+0x5c>
    513a:	40c0                	lw	s0,4(s1)
    513c:	00c41703          	lh	a4,12(s0)
    5140:	01071793          	slli	a5,a4,0x10
    5144:	83c1                	srli	a5,a5,0x10
    5146:	0087f693          	andi	a3,a5,8
    514a:	eaad                	bnez	a3,51bc <__swsetup_r+0xac>
    514c:	0107f693          	andi	a3,a5,16
    5150:	ee95                	bnez	a3,518c <__swsetup_r+0x7c>
    5152:	47a5                	li	a5,9
    5154:	00f92023          	sw	a5,0(s2)
    5158:	04076713          	ori	a4,a4,64
    515c:	a45a                	sh	a4,12(s0)
    515e:	557d                	li	a0,-1
    5160:	40b2                	lw	ra,12(sp)
    5162:	4422                	lw	s0,8(sp)
    5164:	4492                	lw	s1,4(sp)
    5166:	4902                	lw	s2,0(sp)
    5168:	0141                	addi	sp,sp,16
    516a:	8082                	ret
    516c:	00001797          	auipc	a5,0x1
    5170:	33878793          	addi	a5,a5,824 # 64a4 <__sf_fake_stdout>
    5174:	00f41463          	bne	s0,a5,517c <__swsetup_r+0x6c>
    5178:	4480                	lw	s0,8(s1)
    517a:	b7c9                	j	513c <__swsetup_r+0x2c>
    517c:	00001797          	auipc	a5,0x1
    5180:	2e878793          	addi	a5,a5,744 # 6464 <__sf_fake_stderr>
    5184:	faf41ce3          	bne	s0,a5,513c <__swsetup_r+0x2c>
    5188:	44c0                	lw	s0,12(s1)
    518a:	bf4d                	j	513c <__swsetup_r+0x2c>
    518c:	8b91                	andi	a5,a5,4
    518e:	c39d                	beqz	a5,51b4 <__swsetup_r+0xa4>
    5190:	584c                	lw	a1,52(s0)
    5192:	c989                	beqz	a1,51a4 <__swsetup_r+0x94>
    5194:	04440793          	addi	a5,s0,68
    5198:	00f58463          	beq	a1,a5,51a0 <__swsetup_r+0x90>
    519c:	854a                	mv	a0,s2
    519e:	2b19                	jal	56b4 <_free_r>
    51a0:	02042a23          	sw	zero,52(s0)
    51a4:	245e                	lhu	a5,12(s0)
    51a6:	00042223          	sw	zero,4(s0)
    51aa:	fdb7f793          	andi	a5,a5,-37
    51ae:	a45e                	sh	a5,12(s0)
    51b0:	481c                	lw	a5,16(s0)
    51b2:	c01c                	sw	a5,0(s0)
    51b4:	245e                	lhu	a5,12(s0)
    51b6:	0087e793          	ori	a5,a5,8
    51ba:	a45e                	sh	a5,12(s0)
    51bc:	481c                	lw	a5,16(s0)
    51be:	eb99                	bnez	a5,51d4 <__swsetup_r+0xc4>
    51c0:	245e                	lhu	a5,12(s0)
    51c2:	20000713          	li	a4,512
    51c6:	2807f793          	andi	a5,a5,640
    51ca:	00e78563          	beq	a5,a4,51d4 <__swsetup_r+0xc4>
    51ce:	85a2                	mv	a1,s0
    51d0:	854a                	mv	a0,s2
    51d2:	2989                	jal	5624 <__smakebuf_r>
    51d4:	245e                	lhu	a5,12(s0)
    51d6:	0017f713          	andi	a4,a5,1
    51da:	c31d                	beqz	a4,5200 <__swsetup_r+0xf0>
    51dc:	485c                	lw	a5,20(s0)
    51de:	00042423          	sw	zero,8(s0)
    51e2:	40f007b3          	neg	a5,a5
    51e6:	cc1c                	sw	a5,24(s0)
    51e8:	481c                	lw	a5,16(s0)
    51ea:	4501                	li	a0,0
    51ec:	fbb5                	bnez	a5,5160 <__swsetup_r+0x50>
    51ee:	00c41783          	lh	a5,12(s0)
    51f2:	0807f713          	andi	a4,a5,128
    51f6:	d72d                	beqz	a4,5160 <__swsetup_r+0x50>
    51f8:	0407e793          	ori	a5,a5,64
    51fc:	a45e                	sh	a5,12(s0)
    51fe:	b785                	j	515e <__swsetup_r+0x4e>
    5200:	8b89                	andi	a5,a5,2
    5202:	4701                	li	a4,0
    5204:	e391                	bnez	a5,5208 <__swsetup_r+0xf8>
    5206:	4858                	lw	a4,20(s0)
    5208:	c418                	sw	a4,8(s0)
    520a:	bff9                	j	51e8 <__swsetup_r+0xd8>

0000520c <__sflush_r>:
    520c:	25de                	lhu	a5,12(a1)
    520e:	1101                	addi	sp,sp,-32
    5210:	cc22                	sw	s0,24(sp)
    5212:	ca26                	sw	s1,20(sp)
    5214:	ce06                	sw	ra,28(sp)
    5216:	c84a                	sw	s2,16(sp)
    5218:	c64e                	sw	s3,12(sp)
    521a:	0087f713          	andi	a4,a5,8
    521e:	84aa                	mv	s1,a0
    5220:	842e                	mv	s0,a1
    5222:	eb79                	bnez	a4,52f8 <__sflush_r+0xec>
    5224:	41d8                	lw	a4,4(a1)
    5226:	00e04d63          	bgtz	a4,5240 <__sflush_r+0x34>
    522a:	41b8                	lw	a4,64(a1)
    522c:	00e04a63          	bgtz	a4,5240 <__sflush_r+0x34>
    5230:	4501                	li	a0,0
    5232:	40f2                	lw	ra,28(sp)
    5234:	4462                	lw	s0,24(sp)
    5236:	44d2                	lw	s1,20(sp)
    5238:	4942                	lw	s2,16(sp)
    523a:	49b2                	lw	s3,12(sp)
    523c:	6105                	addi	sp,sp,32
    523e:	8082                	ret
    5240:	5458                	lw	a4,44(s0)
    5242:	d77d                	beqz	a4,5230 <__sflush_r+0x24>
    5244:	0004a903          	lw	s2,0(s1) # 7ff00000 <_eusrstack+0x5fef8000>
    5248:	01379693          	slli	a3,a5,0x13
    524c:	0004a023          	sw	zero,0(s1)
    5250:	0606db63          	bgez	a3,52c6 <__sflush_r+0xba>
    5254:	4870                	lw	a2,84(s0)
    5256:	245e                	lhu	a5,12(s0)
    5258:	8b91                	andi	a5,a5,4
    525a:	c799                	beqz	a5,5268 <__sflush_r+0x5c>
    525c:	405c                	lw	a5,4(s0)
    525e:	8e1d                	sub	a2,a2,a5
    5260:	585c                	lw	a5,52(s0)
    5262:	c399                	beqz	a5,5268 <__sflush_r+0x5c>
    5264:	403c                	lw	a5,64(s0)
    5266:	8e1d                	sub	a2,a2,a5
    5268:	545c                	lw	a5,44(s0)
    526a:	500c                	lw	a1,32(s0)
    526c:	4681                	li	a3,0
    526e:	8526                	mv	a0,s1
    5270:	9782                	jalr	a5
    5272:	57fd                	li	a5,-1
    5274:	245a                	lhu	a4,12(s0)
    5276:	00f51d63          	bne	a0,a5,5290 <__sflush_r+0x84>
    527a:	4094                	lw	a3,0(s1)
    527c:	47f5                	li	a5,29
    527e:	06d7e863          	bltu	a5,a3,52ee <__sflush_r+0xe2>
    5282:	204007b7          	lui	a5,0x20400
    5286:	0785                	addi	a5,a5,1
    5288:	00d7d7b3          	srl	a5,a5,a3
    528c:	8b85                	andi	a5,a5,1
    528e:	c3a5                	beqz	a5,52ee <__sflush_r+0xe2>
    5290:	481c                	lw	a5,16(s0)
    5292:	00042223          	sw	zero,4(s0)
    5296:	c01c                	sw	a5,0(s0)
    5298:	01371793          	slli	a5,a4,0x13
    529c:	0007d863          	bgez	a5,52ac <__sflush_r+0xa0>
    52a0:	57fd                	li	a5,-1
    52a2:	00f51463          	bne	a0,a5,52aa <__sflush_r+0x9e>
    52a6:	409c                	lw	a5,0(s1)
    52a8:	e391                	bnez	a5,52ac <__sflush_r+0xa0>
    52aa:	c868                	sw	a0,84(s0)
    52ac:	584c                	lw	a1,52(s0)
    52ae:	0124a023          	sw	s2,0(s1)
    52b2:	ddbd                	beqz	a1,5230 <__sflush_r+0x24>
    52b4:	04440793          	addi	a5,s0,68
    52b8:	00f58463          	beq	a1,a5,52c0 <__sflush_r+0xb4>
    52bc:	8526                	mv	a0,s1
    52be:	2edd                	jal	56b4 <_free_r>
    52c0:	02042a23          	sw	zero,52(s0)
    52c4:	b7b5                	j	5230 <__sflush_r+0x24>
    52c6:	500c                	lw	a1,32(s0)
    52c8:	4601                	li	a2,0
    52ca:	4685                	li	a3,1
    52cc:	8526                	mv	a0,s1
    52ce:	9702                	jalr	a4
    52d0:	57fd                	li	a5,-1
    52d2:	862a                	mv	a2,a0
    52d4:	f8f511e3          	bne	a0,a5,5256 <__sflush_r+0x4a>
    52d8:	409c                	lw	a5,0(s1)
    52da:	dfb5                	beqz	a5,5256 <__sflush_r+0x4a>
    52dc:	4775                	li	a4,29
    52de:	00e78563          	beq	a5,a4,52e8 <__sflush_r+0xdc>
    52e2:	4759                	li	a4,22
    52e4:	04e79363          	bne	a5,a4,532a <__sflush_r+0x11e>
    52e8:	0124a023          	sw	s2,0(s1)
    52ec:	b791                	j	5230 <__sflush_r+0x24>
    52ee:	04076713          	ori	a4,a4,64
    52f2:	a45a                	sh	a4,12(s0)
    52f4:	557d                	li	a0,-1
    52f6:	bf35                	j	5232 <__sflush_r+0x26>
    52f8:	0105a983          	lw	s3,16(a1) # 80000010 <_eusrstack+0x5fff8010>
    52fc:	f2098ae3          	beqz	s3,5230 <__sflush_r+0x24>
    5300:	0005a903          	lw	s2,0(a1)
    5304:	8b8d                	andi	a5,a5,3
    5306:	0135a023          	sw	s3,0(a1)
    530a:	41390933          	sub	s2,s2,s3
    530e:	4701                	li	a4,0
    5310:	e391                	bnez	a5,5314 <__sflush_r+0x108>
    5312:	49d8                	lw	a4,20(a1)
    5314:	c418                	sw	a4,8(s0)
    5316:	f1205de3          	blez	s2,5230 <__sflush_r+0x24>
    531a:	541c                	lw	a5,40(s0)
    531c:	500c                	lw	a1,32(s0)
    531e:	86ca                	mv	a3,s2
    5320:	864e                	mv	a2,s3
    5322:	8526                	mv	a0,s1
    5324:	9782                	jalr	a5
    5326:	00a04763          	bgtz	a0,5334 <__sflush_r+0x128>
    532a:	245e                	lhu	a5,12(s0)
    532c:	0407e793          	ori	a5,a5,64
    5330:	a45e                	sh	a5,12(s0)
    5332:	b7c9                	j	52f4 <__sflush_r+0xe8>
    5334:	99aa                	add	s3,s3,a0
    5336:	40a90933          	sub	s2,s2,a0
    533a:	bff1                	j	5316 <__sflush_r+0x10a>

0000533c <_fflush_r>:
    533c:	499c                	lw	a5,16(a1)
    533e:	c3a5                	beqz	a5,539e <_fflush_r+0x62>
    5340:	1101                	addi	sp,sp,-32
    5342:	cc22                	sw	s0,24(sp)
    5344:	ce06                	sw	ra,28(sp)
    5346:	842a                	mv	s0,a0
    5348:	c511                	beqz	a0,5354 <_fflush_r+0x18>
    534a:	4d1c                	lw	a5,24(a0)
    534c:	e781                	bnez	a5,5354 <_fflush_r+0x18>
    534e:	c62e                	sw	a1,12(sp)
    5350:	2221                	jal	5458 <__sinit>
    5352:	45b2                	lw	a1,12(sp)
    5354:	00001797          	auipc	a5,0x1
    5358:	13078793          	addi	a5,a5,304 # 6484 <__sf_fake_stdin>
    535c:	00f59c63          	bne	a1,a5,5374 <_fflush_r+0x38>
    5360:	404c                	lw	a1,4(s0)
    5362:	00c59783          	lh	a5,12(a1)
    5366:	c79d                	beqz	a5,5394 <_fflush_r+0x58>
    5368:	8522                	mv	a0,s0
    536a:	4462                	lw	s0,24(sp)
    536c:	40f2                	lw	ra,28(sp)
    536e:	6105                	addi	sp,sp,32
    5370:	e9dff06f          	j	520c <__sflush_r>
    5374:	00001797          	auipc	a5,0x1
    5378:	13078793          	addi	a5,a5,304 # 64a4 <__sf_fake_stdout>
    537c:	00f59463          	bne	a1,a5,5384 <_fflush_r+0x48>
    5380:	440c                	lw	a1,8(s0)
    5382:	b7c5                	j	5362 <_fflush_r+0x26>
    5384:	00001797          	auipc	a5,0x1
    5388:	0e078793          	addi	a5,a5,224 # 6464 <__sf_fake_stderr>
    538c:	fcf59be3          	bne	a1,a5,5362 <_fflush_r+0x26>
    5390:	444c                	lw	a1,12(s0)
    5392:	bfc1                	j	5362 <_fflush_r+0x26>
    5394:	40f2                	lw	ra,28(sp)
    5396:	4462                	lw	s0,24(sp)
    5398:	4501                	li	a0,0
    539a:	6105                	addi	sp,sp,32
    539c:	8082                	ret
    539e:	4501                	li	a0,0
    53a0:	8082                	ret

000053a2 <std>:
    53a2:	1141                	addi	sp,sp,-16
    53a4:	c422                	sw	s0,8(sp)
    53a6:	c606                	sw	ra,12(sp)
    53a8:	842a                	mv	s0,a0
    53aa:	a54e                	sh	a1,12(a0)
    53ac:	a572                	sh	a2,14(a0)
    53ae:	00052023          	sw	zero,0(a0)
    53b2:	00052223          	sw	zero,4(a0)
    53b6:	00052423          	sw	zero,8(a0)
    53ba:	06052223          	sw	zero,100(a0)
    53be:	00052823          	sw	zero,16(a0)
    53c2:	00052a23          	sw	zero,20(a0)
    53c6:	00052c23          	sw	zero,24(a0)
    53ca:	4621                	li	a2,8
    53cc:	4581                	li	a1,0
    53ce:	05c50513          	addi	a0,a0,92
    53d2:	e8ffa0ef          	jal	ra,260 <memset>
    53d6:	00000797          	auipc	a5,0x0
    53da:	47a78793          	addi	a5,a5,1146 # 5850 <__sread>
    53de:	d05c                	sw	a5,36(s0)
    53e0:	00000797          	auipc	a5,0x0
    53e4:	49c78793          	addi	a5,a5,1180 # 587c <__swrite>
    53e8:	d41c                	sw	a5,40(s0)
    53ea:	00000797          	auipc	a5,0x0
    53ee:	4da78793          	addi	a5,a5,1242 # 58c4 <__sseek>
    53f2:	d45c                	sw	a5,44(s0)
    53f4:	00000797          	auipc	a5,0x0
    53f8:	50078793          	addi	a5,a5,1280 # 58f4 <__sclose>
    53fc:	d000                	sw	s0,32(s0)
    53fe:	d81c                	sw	a5,48(s0)
    5400:	40b2                	lw	ra,12(sp)
    5402:	4422                	lw	s0,8(sp)
    5404:	0141                	addi	sp,sp,16
    5406:	8082                	ret

00005408 <_cleanup_r>:
    5408:	00000597          	auipc	a1,0x0
    540c:	f3458593          	addi	a1,a1,-204 # 533c <_fflush_r>
    5410:	aa91                	j	5564 <_fwalk_reent>

00005412 <__sfmoreglue>:
    5412:	1141                	addi	sp,sp,-16
    5414:	c226                	sw	s1,4(sp)
    5416:	06800613          	li	a2,104
    541a:	fff58493          	addi	s1,a1,-1
    541e:	02c484b3          	mul	s1,s1,a2
    5422:	c04a                	sw	s2,0(sp)
    5424:	892e                	mv	s2,a1
    5426:	c422                	sw	s0,8(sp)
    5428:	c606                	sw	ra,12(sp)
    542a:	07448593          	addi	a1,s1,116
    542e:	262d                	jal	5758 <_malloc_r>
    5430:	842a                	mv	s0,a0
    5432:	cd01                	beqz	a0,544a <__sfmoreglue+0x38>
    5434:	00052023          	sw	zero,0(a0)
    5438:	01252223          	sw	s2,4(a0)
    543c:	0531                	addi	a0,a0,12
    543e:	c408                	sw	a0,8(s0)
    5440:	06848613          	addi	a2,s1,104
    5444:	4581                	li	a1,0
    5446:	e1bfa0ef          	jal	ra,260 <memset>
    544a:	8522                	mv	a0,s0
    544c:	40b2                	lw	ra,12(sp)
    544e:	4422                	lw	s0,8(sp)
    5450:	4492                	lw	s1,4(sp)
    5452:	4902                	lw	s2,0(sp)
    5454:	0141                	addi	sp,sp,16
    5456:	8082                	ret

00005458 <__sinit>:
    5458:	4d1c                	lw	a5,24(a0)
    545a:	e7a5                	bnez	a5,54c2 <__sinit+0x6a>
    545c:	1141                	addi	sp,sp,-16
    545e:	c606                	sw	ra,12(sp)
    5460:	c422                	sw	s0,8(sp)
    5462:	00000797          	auipc	a5,0x0
    5466:	fa678793          	addi	a5,a5,-90 # 5408 <_cleanup_r>
    546a:	d51c                	sw	a5,40(a0)
    546c:	81018793          	addi	a5,gp,-2032 # 20000080 <_global_impure_ptr>
    5470:	439c                	lw	a5,0(a5)
    5472:	04052423          	sw	zero,72(a0)
    5476:	04052623          	sw	zero,76(a0)
    547a:	04052823          	sw	zero,80(a0)
    547e:	00f51463          	bne	a0,a5,5486 <__sinit+0x2e>
    5482:	4785                	li	a5,1
    5484:	cd1c                	sw	a5,24(a0)
    5486:	842a                	mv	s0,a0
    5488:	2835                	jal	54c4 <__sfp>
    548a:	c048                	sw	a0,4(s0)
    548c:	8522                	mv	a0,s0
    548e:	281d                	jal	54c4 <__sfp>
    5490:	c408                	sw	a0,8(s0)
    5492:	8522                	mv	a0,s0
    5494:	2805                	jal	54c4 <__sfp>
    5496:	c448                	sw	a0,12(s0)
    5498:	4048                	lw	a0,4(s0)
    549a:	4601                	li	a2,0
    549c:	4591                	li	a1,4
    549e:	f05ff0ef          	jal	ra,53a2 <std>
    54a2:	4408                	lw	a0,8(s0)
    54a4:	4605                	li	a2,1
    54a6:	45a5                	li	a1,9
    54a8:	efbff0ef          	jal	ra,53a2 <std>
    54ac:	4448                	lw	a0,12(s0)
    54ae:	4609                	li	a2,2
    54b0:	45c9                	li	a1,18
    54b2:	ef1ff0ef          	jal	ra,53a2 <std>
    54b6:	4785                	li	a5,1
    54b8:	cc1c                	sw	a5,24(s0)
    54ba:	40b2                	lw	ra,12(sp)
    54bc:	4422                	lw	s0,8(sp)
    54be:	0141                	addi	sp,sp,16
    54c0:	8082                	ret
    54c2:	8082                	ret

000054c4 <__sfp>:
    54c4:	1141                	addi	sp,sp,-16
    54c6:	81018793          	addi	a5,gp,-2032 # 20000080 <_global_impure_ptr>
    54ca:	c226                	sw	s1,4(sp)
    54cc:	4384                	lw	s1,0(a5)
    54ce:	c04a                	sw	s2,0(sp)
    54d0:	c606                	sw	ra,12(sp)
    54d2:	4c9c                	lw	a5,24(s1)
    54d4:	c422                	sw	s0,8(sp)
    54d6:	892a                	mv	s2,a0
    54d8:	e781                	bnez	a5,54e0 <__sfp+0x1c>
    54da:	8526                	mv	a0,s1
    54dc:	f7dff0ef          	jal	ra,5458 <__sinit>
    54e0:	04848493          	addi	s1,s1,72
    54e4:	4480                	lw	s0,8(s1)
    54e6:	40dc                	lw	a5,4(s1)
    54e8:	17fd                	addi	a5,a5,-1
    54ea:	0007d663          	bgez	a5,54f6 <__sfp+0x32>
    54ee:	409c                	lw	a5,0(s1)
    54f0:	cfb9                	beqz	a5,554e <__sfp+0x8a>
    54f2:	4084                	lw	s1,0(s1)
    54f4:	bfc5                	j	54e4 <__sfp+0x20>
    54f6:	00c41703          	lh	a4,12(s0)
    54fa:	e739                	bnez	a4,5548 <__sfp+0x84>
    54fc:	77c1                	lui	a5,0xffff0
    54fe:	0785                	addi	a5,a5,1
    5500:	06042223          	sw	zero,100(s0)
    5504:	00042023          	sw	zero,0(s0)
    5508:	00042223          	sw	zero,4(s0)
    550c:	00042423          	sw	zero,8(s0)
    5510:	c45c                	sw	a5,12(s0)
    5512:	00042823          	sw	zero,16(s0)
    5516:	00042a23          	sw	zero,20(s0)
    551a:	00042c23          	sw	zero,24(s0)
    551e:	4621                	li	a2,8
    5520:	4581                	li	a1,0
    5522:	05c40513          	addi	a0,s0,92
    5526:	d3bfa0ef          	jal	ra,260 <memset>
    552a:	02042a23          	sw	zero,52(s0)
    552e:	02042c23          	sw	zero,56(s0)
    5532:	04042423          	sw	zero,72(s0)
    5536:	04042623          	sw	zero,76(s0)
    553a:	8522                	mv	a0,s0
    553c:	40b2                	lw	ra,12(sp)
    553e:	4422                	lw	s0,8(sp)
    5540:	4492                	lw	s1,4(sp)
    5542:	4902                	lw	s2,0(sp)
    5544:	0141                	addi	sp,sp,16
    5546:	8082                	ret
    5548:	06840413          	addi	s0,s0,104
    554c:	bf71                	j	54e8 <__sfp+0x24>
    554e:	4591                	li	a1,4
    5550:	854a                	mv	a0,s2
    5552:	ec1ff0ef          	jal	ra,5412 <__sfmoreglue>
    5556:	c088                	sw	a0,0(s1)
    5558:	fd49                	bnez	a0,54f2 <__sfp+0x2e>
    555a:	47b1                	li	a5,12
    555c:	00f92023          	sw	a5,0(s2)
    5560:	4401                	li	s0,0
    5562:	bfe1                	j	553a <__sfp+0x76>

00005564 <_fwalk_reent>:
    5564:	7179                	addi	sp,sp,-48
    5566:	d422                	sw	s0,40(sp)
    5568:	d04a                	sw	s2,32(sp)
    556a:	cc52                	sw	s4,24(sp)
    556c:	ca56                	sw	s5,20(sp)
    556e:	c85a                	sw	s6,16(sp)
    5570:	c65e                	sw	s7,12(sp)
    5572:	d606                	sw	ra,44(sp)
    5574:	d226                	sw	s1,36(sp)
    5576:	ce4e                	sw	s3,28(sp)
    5578:	8a2a                	mv	s4,a0
    557a:	8aae                	mv	s5,a1
    557c:	04850413          	addi	s0,a0,72
    5580:	4901                	li	s2,0
    5582:	4b05                	li	s6,1
    5584:	5bfd                	li	s7,-1
    5586:	ec09                	bnez	s0,55a0 <_fwalk_reent+0x3c>
    5588:	50b2                	lw	ra,44(sp)
    558a:	5422                	lw	s0,40(sp)
    558c:	854a                	mv	a0,s2
    558e:	5492                	lw	s1,36(sp)
    5590:	5902                	lw	s2,32(sp)
    5592:	49f2                	lw	s3,28(sp)
    5594:	4a62                	lw	s4,24(sp)
    5596:	4ad2                	lw	s5,20(sp)
    5598:	4b42                	lw	s6,16(sp)
    559a:	4bb2                	lw	s7,12(sp)
    559c:	6145                	addi	sp,sp,48
    559e:	8082                	ret
    55a0:	4404                	lw	s1,8(s0)
    55a2:	00442983          	lw	s3,4(s0)
    55a6:	19fd                	addi	s3,s3,-1
    55a8:	0009d463          	bgez	s3,55b0 <_fwalk_reent+0x4c>
    55ac:	4000                	lw	s0,0(s0)
    55ae:	bfe1                	j	5586 <_fwalk_reent+0x22>
    55b0:	24de                	lhu	a5,12(s1)
    55b2:	00fb7b63          	bgeu	s6,a5,55c8 <_fwalk_reent+0x64>
    55b6:	00e49783          	lh	a5,14(s1)
    55ba:	01778763          	beq	a5,s7,55c8 <_fwalk_reent+0x64>
    55be:	85a6                	mv	a1,s1
    55c0:	8552                	mv	a0,s4
    55c2:	9a82                	jalr	s5
    55c4:	00a96933          	or	s2,s2,a0
    55c8:	06848493          	addi	s1,s1,104
    55cc:	bfe9                	j	55a6 <_fwalk_reent+0x42>

000055ce <__swhatbuf_r>:
    55ce:	7119                	addi	sp,sp,-128
    55d0:	daa6                	sw	s1,116(sp)
    55d2:	84ae                	mv	s1,a1
    55d4:	00e59583          	lh	a1,14(a1)
    55d8:	dca2                	sw	s0,120(sp)
    55da:	de86                	sw	ra,124(sp)
    55dc:	8432                	mv	s0,a2
    55de:	0005db63          	bgez	a1,55f4 <__swhatbuf_r+0x26>
    55e2:	24de                	lhu	a5,12(s1)
    55e4:	0006a023          	sw	zero,0(a3)
    55e8:	0807f793          	andi	a5,a5,128
    55ec:	e39d                	bnez	a5,5612 <__swhatbuf_r+0x44>
    55ee:	40000793          	li	a5,1024
    55f2:	a015                	j	5616 <__swhatbuf_r+0x48>
    55f4:	0830                	addi	a2,sp,24
    55f6:	c636                	sw	a3,12(sp)
    55f8:	2ea1                	jal	5950 <_fstat_r>
    55fa:	46b2                	lw	a3,12(sp)
    55fc:	fe0543e3          	bltz	a0,55e2 <__swhatbuf_r+0x14>
    5600:	4772                	lw	a4,28(sp)
    5602:	67bd                	lui	a5,0xf
    5604:	8ff9                	and	a5,a5,a4
    5606:	7779                	lui	a4,0xffffe
    5608:	97ba                	add	a5,a5,a4
    560a:	0017b793          	seqz	a5,a5
    560e:	c29c                	sw	a5,0(a3)
    5610:	bff9                	j	55ee <__swhatbuf_r+0x20>
    5612:	04000793          	li	a5,64
    5616:	c01c                	sw	a5,0(s0)
    5618:	50f6                	lw	ra,124(sp)
    561a:	5466                	lw	s0,120(sp)
    561c:	54d6                	lw	s1,116(sp)
    561e:	4501                	li	a0,0
    5620:	6109                	addi	sp,sp,128
    5622:	8082                	ret

00005624 <__smakebuf_r>:
    5624:	25de                	lhu	a5,12(a1)
    5626:	1101                	addi	sp,sp,-32
    5628:	cc22                	sw	s0,24(sp)
    562a:	ce06                	sw	ra,28(sp)
    562c:	ca26                	sw	s1,20(sp)
    562e:	c84a                	sw	s2,16(sp)
    5630:	8b89                	andi	a5,a5,2
    5632:	842e                	mv	s0,a1
    5634:	cf89                	beqz	a5,564e <__smakebuf_r+0x2a>
    5636:	04740793          	addi	a5,s0,71
    563a:	c01c                	sw	a5,0(s0)
    563c:	c81c                	sw	a5,16(s0)
    563e:	4785                	li	a5,1
    5640:	c85c                	sw	a5,20(s0)
    5642:	40f2                	lw	ra,28(sp)
    5644:	4462                	lw	s0,24(sp)
    5646:	44d2                	lw	s1,20(sp)
    5648:	4942                	lw	s2,16(sp)
    564a:	6105                	addi	sp,sp,32
    564c:	8082                	ret
    564e:	0074                	addi	a3,sp,12
    5650:	0030                	addi	a2,sp,8
    5652:	84aa                	mv	s1,a0
    5654:	f7bff0ef          	jal	ra,55ce <__swhatbuf_r>
    5658:	45a2                	lw	a1,8(sp)
    565a:	892a                	mv	s2,a0
    565c:	8526                	mv	a0,s1
    565e:	28ed                	jal	5758 <_malloc_r>
    5660:	e919                	bnez	a0,5676 <__smakebuf_r+0x52>
    5662:	00c41783          	lh	a5,12(s0)
    5666:	2007f713          	andi	a4,a5,512
    566a:	ff61                	bnez	a4,5642 <__smakebuf_r+0x1e>
    566c:	9bf1                	andi	a5,a5,-4
    566e:	0027e793          	ori	a5,a5,2
    5672:	a45e                	sh	a5,12(s0)
    5674:	b7c9                	j	5636 <__smakebuf_r+0x12>
    5676:	00000797          	auipc	a5,0x0
    567a:	d9278793          	addi	a5,a5,-622 # 5408 <_cleanup_r>
    567e:	d49c                	sw	a5,40(s1)
    5680:	245e                	lhu	a5,12(s0)
    5682:	c008                	sw	a0,0(s0)
    5684:	c808                	sw	a0,16(s0)
    5686:	0807e793          	ori	a5,a5,128
    568a:	a45e                	sh	a5,12(s0)
    568c:	47a2                	lw	a5,8(sp)
    568e:	c85c                	sw	a5,20(s0)
    5690:	47b2                	lw	a5,12(sp)
    5692:	cb99                	beqz	a5,56a8 <__smakebuf_r+0x84>
    5694:	00e41583          	lh	a1,14(s0)
    5698:	8526                	mv	a0,s1
    569a:	24c5                	jal	597a <_isatty_r>
    569c:	c511                	beqz	a0,56a8 <__smakebuf_r+0x84>
    569e:	245e                	lhu	a5,12(s0)
    56a0:	9bf1                	andi	a5,a5,-4
    56a2:	0017e793          	ori	a5,a5,1
    56a6:	a45e                	sh	a5,12(s0)
    56a8:	245e                	lhu	a5,12(s0)
    56aa:	00f96933          	or	s2,s2,a5
    56ae:	01241623          	sh	s2,12(s0)
    56b2:	bf41                	j	5642 <__smakebuf_r+0x1e>

000056b4 <_free_r>:
    56b4:	c1cd                	beqz	a1,5756 <_free_r+0xa2>
    56b6:	ffc5a783          	lw	a5,-4(a1)
    56ba:	1141                	addi	sp,sp,-16
    56bc:	c422                	sw	s0,8(sp)
    56be:	c606                	sw	ra,12(sp)
    56c0:	c226                	sw	s1,4(sp)
    56c2:	ffc58413          	addi	s0,a1,-4
    56c6:	0007d363          	bgez	a5,56cc <_free_r+0x18>
    56ca:	943e                	add	s0,s0,a5
    56cc:	84aa                	mv	s1,a0
    56ce:	2601                	jal	59ce <__malloc_lock>
    56d0:	a9018793          	addi	a5,gp,-1392 # 20000300 <__malloc_free_list>
    56d4:	439c                	lw	a5,0(a5)
    56d6:	eb99                	bnez	a5,56ec <_free_r+0x38>
    56d8:	00042223          	sw	zero,4(s0)
    56dc:	a881a823          	sw	s0,-1392(gp) # 20000300 <__malloc_free_list>
    56e0:	4422                	lw	s0,8(sp)
    56e2:	40b2                	lw	ra,12(sp)
    56e4:	8526                	mv	a0,s1
    56e6:	4492                	lw	s1,4(sp)
    56e8:	0141                	addi	sp,sp,16
    56ea:	a4dd                	j	59d0 <__malloc_unlock>
    56ec:	00f47e63          	bgeu	s0,a5,5708 <_free_r+0x54>
    56f0:	4014                	lw	a3,0(s0)
    56f2:	00d40733          	add	a4,s0,a3
    56f6:	00e79663          	bne	a5,a4,5702 <_free_r+0x4e>
    56fa:	4398                	lw	a4,0(a5)
    56fc:	43dc                	lw	a5,4(a5)
    56fe:	9736                	add	a4,a4,a3
    5700:	c018                	sw	a4,0(s0)
    5702:	c05c                	sw	a5,4(s0)
    5704:	bfe1                	j	56dc <_free_r+0x28>
    5706:	87ba                	mv	a5,a4
    5708:	43d8                	lw	a4,4(a5)
    570a:	c319                	beqz	a4,5710 <_free_r+0x5c>
    570c:	fee47de3          	bgeu	s0,a4,5706 <_free_r+0x52>
    5710:	4394                	lw	a3,0(a5)
    5712:	00d78633          	add	a2,a5,a3
    5716:	00861f63          	bne	a2,s0,5734 <_free_r+0x80>
    571a:	4010                	lw	a2,0(s0)
    571c:	96b2                	add	a3,a3,a2
    571e:	c394                	sw	a3,0(a5)
    5720:	00d78633          	add	a2,a5,a3
    5724:	fac71ee3          	bne	a4,a2,56e0 <_free_r+0x2c>
    5728:	4310                	lw	a2,0(a4)
    572a:	4358                	lw	a4,4(a4)
    572c:	96b2                	add	a3,a3,a2
    572e:	c394                	sw	a3,0(a5)
    5730:	c3d8                	sw	a4,4(a5)
    5732:	b77d                	j	56e0 <_free_r+0x2c>
    5734:	00c47563          	bgeu	s0,a2,573e <_free_r+0x8a>
    5738:	47b1                	li	a5,12
    573a:	c09c                	sw	a5,0(s1)
    573c:	b755                	j	56e0 <_free_r+0x2c>
    573e:	4010                	lw	a2,0(s0)
    5740:	00c406b3          	add	a3,s0,a2
    5744:	00d71663          	bne	a4,a3,5750 <_free_r+0x9c>
    5748:	4314                	lw	a3,0(a4)
    574a:	4358                	lw	a4,4(a4)
    574c:	96b2                	add	a3,a3,a2
    574e:	c014                	sw	a3,0(s0)
    5750:	c058                	sw	a4,4(s0)
    5752:	c3c0                	sw	s0,4(a5)
    5754:	b771                	j	56e0 <_free_r+0x2c>
    5756:	8082                	ret

00005758 <_malloc_r>:
    5758:	1101                	addi	sp,sp,-32
    575a:	ca26                	sw	s1,20(sp)
    575c:	00358493          	addi	s1,a1,3
    5760:	98f1                	andi	s1,s1,-4
    5762:	ce06                	sw	ra,28(sp)
    5764:	cc22                	sw	s0,24(sp)
    5766:	c84a                	sw	s2,16(sp)
    5768:	c64e                	sw	s3,12(sp)
    576a:	04a1                	addi	s1,s1,8
    576c:	47b1                	li	a5,12
    576e:	04f4f163          	bgeu	s1,a5,57b0 <_malloc_r+0x58>
    5772:	44b1                	li	s1,12
    5774:	04b4e063          	bltu	s1,a1,57b4 <_malloc_r+0x5c>
    5778:	892a                	mv	s2,a0
    577a:	2c91                	jal	59ce <__malloc_lock>
    577c:	a9018793          	addi	a5,gp,-1392 # 20000300 <__malloc_free_list>
    5780:	4398                	lw	a4,0(a5)
    5782:	843a                	mv	s0,a4
    5784:	e031                	bnez	s0,57c8 <_malloc_r+0x70>
    5786:	a9418793          	addi	a5,gp,-1388 # 20000304 <__malloc_sbrk_start>
    578a:	439c                	lw	a5,0(a5)
    578c:	e791                	bnez	a5,5798 <_malloc_r+0x40>
    578e:	4581                	li	a1,0
    5790:	854a                	mv	a0,s2
    5792:	2851                	jal	5826 <_sbrk_r>
    5794:	a8a1aa23          	sw	a0,-1388(gp) # 20000304 <__malloc_sbrk_start>
    5798:	85a6                	mv	a1,s1
    579a:	854a                	mv	a0,s2
    579c:	2069                	jal	5826 <_sbrk_r>
    579e:	59fd                	li	s3,-1
    57a0:	07351763          	bne	a0,s3,580e <_malloc_r+0xb6>
    57a4:	47b1                	li	a5,12
    57a6:	00f92023          	sw	a5,0(s2)
    57aa:	854a                	mv	a0,s2
    57ac:	2415                	jal	59d0 <__malloc_unlock>
    57ae:	a029                	j	57b8 <_malloc_r+0x60>
    57b0:	fc04d2e3          	bgez	s1,5774 <_malloc_r+0x1c>
    57b4:	47b1                	li	a5,12
    57b6:	c11c                	sw	a5,0(a0)
    57b8:	4501                	li	a0,0
    57ba:	40f2                	lw	ra,28(sp)
    57bc:	4462                	lw	s0,24(sp)
    57be:	44d2                	lw	s1,20(sp)
    57c0:	4942                	lw	s2,16(sp)
    57c2:	49b2                	lw	s3,12(sp)
    57c4:	6105                	addi	sp,sp,32
    57c6:	8082                	ret
    57c8:	401c                	lw	a5,0(s0)
    57ca:	8f85                	sub	a5,a5,s1
    57cc:	0207ce63          	bltz	a5,5808 <_malloc_r+0xb0>
    57d0:	46ad                	li	a3,11
    57d2:	00f6f663          	bgeu	a3,a5,57de <_malloc_r+0x86>
    57d6:	c01c                	sw	a5,0(s0)
    57d8:	943e                	add	s0,s0,a5
    57da:	c004                	sw	s1,0(s0)
    57dc:	a031                	j	57e8 <_malloc_r+0x90>
    57de:	405c                	lw	a5,4(s0)
    57e0:	02871263          	bne	a4,s0,5804 <_malloc_r+0xac>
    57e4:	a8f1a823          	sw	a5,-1392(gp) # 20000300 <__malloc_free_list>
    57e8:	854a                	mv	a0,s2
    57ea:	22dd                	jal	59d0 <__malloc_unlock>
    57ec:	00b40513          	addi	a0,s0,11
    57f0:	00440793          	addi	a5,s0,4
    57f4:	9961                	andi	a0,a0,-8
    57f6:	40f50733          	sub	a4,a0,a5
    57fa:	d361                	beqz	a4,57ba <_malloc_r+0x62>
    57fc:	943a                	add	s0,s0,a4
    57fe:	8f89                	sub	a5,a5,a0
    5800:	c01c                	sw	a5,0(s0)
    5802:	bf65                	j	57ba <_malloc_r+0x62>
    5804:	c35c                	sw	a5,4(a4)
    5806:	b7cd                	j	57e8 <_malloc_r+0x90>
    5808:	8722                	mv	a4,s0
    580a:	4040                	lw	s0,4(s0)
    580c:	bfa5                	j	5784 <_malloc_r+0x2c>
    580e:	00350413          	addi	s0,a0,3
    5812:	9871                	andi	s0,s0,-4
    5814:	fc8503e3          	beq	a0,s0,57da <_malloc_r+0x82>
    5818:	40a405b3          	sub	a1,s0,a0
    581c:	854a                	mv	a0,s2
    581e:	2021                	jal	5826 <_sbrk_r>
    5820:	fb351de3          	bne	a0,s3,57da <_malloc_r+0x82>
    5824:	b741                	j	57a4 <_malloc_r+0x4c>

00005826 <_sbrk_r>:
    5826:	1141                	addi	sp,sp,-16
    5828:	c422                	sw	s0,8(sp)
    582a:	842a                	mv	s0,a0
    582c:	852e                	mv	a0,a1
    582e:	b401a623          	sw	zero,-1204(gp) # 200003bc <errno>
    5832:	c606                	sw	ra,12(sp)
    5834:	a12fd0ef          	jal	ra,2a46 <_sbrk>
    5838:	57fd                	li	a5,-1
    583a:	00f51763          	bne	a0,a5,5848 <_sbrk_r+0x22>
    583e:	b4c18793          	addi	a5,gp,-1204 # 200003bc <errno>
    5842:	439c                	lw	a5,0(a5)
    5844:	c391                	beqz	a5,5848 <_sbrk_r+0x22>
    5846:	c01c                	sw	a5,0(s0)
    5848:	40b2                	lw	ra,12(sp)
    584a:	4422                	lw	s0,8(sp)
    584c:	0141                	addi	sp,sp,16
    584e:	8082                	ret

00005850 <__sread>:
    5850:	1141                	addi	sp,sp,-16
    5852:	c422                	sw	s0,8(sp)
    5854:	842e                	mv	s0,a1
    5856:	00e59583          	lh	a1,14(a1)
    585a:	c606                	sw	ra,12(sp)
    585c:	2a9d                	jal	59d2 <_read_r>
    585e:	00054963          	bltz	a0,5870 <__sread+0x20>
    5862:	487c                	lw	a5,84(s0)
    5864:	97aa                	add	a5,a5,a0
    5866:	c87c                	sw	a5,84(s0)
    5868:	40b2                	lw	ra,12(sp)
    586a:	4422                	lw	s0,8(sp)
    586c:	0141                	addi	sp,sp,16
    586e:	8082                	ret
    5870:	245e                	lhu	a5,12(s0)
    5872:	777d                	lui	a4,0xfffff
    5874:	177d                	addi	a4,a4,-1
    5876:	8ff9                	and	a5,a5,a4
    5878:	a45e                	sh	a5,12(s0)
    587a:	b7fd                	j	5868 <__sread+0x18>

0000587c <__swrite>:
    587c:	25de                	lhu	a5,12(a1)
    587e:	1101                	addi	sp,sp,-32
    5880:	cc22                	sw	s0,24(sp)
    5882:	ca26                	sw	s1,20(sp)
    5884:	c84a                	sw	s2,16(sp)
    5886:	c64e                	sw	s3,12(sp)
    5888:	ce06                	sw	ra,28(sp)
    588a:	1007f793          	andi	a5,a5,256
    588e:	84aa                	mv	s1,a0
    5890:	842e                	mv	s0,a1
    5892:	8932                	mv	s2,a2
    5894:	89b6                	mv	s3,a3
    5896:	c791                	beqz	a5,58a2 <__swrite+0x26>
    5898:	00e59583          	lh	a1,14(a1)
    589c:	4689                	li	a3,2
    589e:	4601                	li	a2,0
    58a0:	2209                	jal	59a2 <_lseek_r>
    58a2:	245e                	lhu	a5,12(s0)
    58a4:	777d                	lui	a4,0xfffff
    58a6:	177d                	addi	a4,a4,-1
    58a8:	8ff9                	and	a5,a5,a4
    58aa:	a45e                	sh	a5,12(s0)
    58ac:	00e41583          	lh	a1,14(s0)
    58b0:	4462                	lw	s0,24(sp)
    58b2:	40f2                	lw	ra,28(sp)
    58b4:	86ce                	mv	a3,s3
    58b6:	864a                	mv	a2,s2
    58b8:	49b2                	lw	s3,12(sp)
    58ba:	4942                	lw	s2,16(sp)
    58bc:	8526                	mv	a0,s1
    58be:	44d2                	lw	s1,20(sp)
    58c0:	6105                	addi	sp,sp,32
    58c2:	a825                	j	58fa <_write_r>

000058c4 <__sseek>:
    58c4:	1141                	addi	sp,sp,-16
    58c6:	c422                	sw	s0,8(sp)
    58c8:	842e                	mv	s0,a1
    58ca:	00e59583          	lh	a1,14(a1)
    58ce:	c606                	sw	ra,12(sp)
    58d0:	28c9                	jal	59a2 <_lseek_r>
    58d2:	57fd                	li	a5,-1
    58d4:	245a                	lhu	a4,12(s0)
    58d6:	00f51a63          	bne	a0,a5,58ea <__sseek+0x26>
    58da:	77fd                	lui	a5,0xfffff
    58dc:	17fd                	addi	a5,a5,-1
    58de:	8ff9                	and	a5,a5,a4
    58e0:	a45e                	sh	a5,12(s0)
    58e2:	40b2                	lw	ra,12(sp)
    58e4:	4422                	lw	s0,8(sp)
    58e6:	0141                	addi	sp,sp,16
    58e8:	8082                	ret
    58ea:	6785                	lui	a5,0x1
    58ec:	8fd9                	or	a5,a5,a4
    58ee:	a45e                	sh	a5,12(s0)
    58f0:	c868                	sw	a0,84(s0)
    58f2:	bfc5                	j	58e2 <__sseek+0x1e>

000058f4 <__sclose>:
    58f4:	00e59583          	lh	a1,14(a1)
    58f8:	a805                	j	5928 <_close_r>

000058fa <_write_r>:
    58fa:	1141                	addi	sp,sp,-16
    58fc:	c422                	sw	s0,8(sp)
    58fe:	842a                	mv	s0,a0
    5900:	852e                	mv	a0,a1
    5902:	85b2                	mv	a1,a2
    5904:	8636                	mv	a2,a3
    5906:	b401a623          	sw	zero,-1204(gp) # 200003bc <errno>
    590a:	c606                	sw	ra,12(sp)
    590c:	8fcfd0ef          	jal	ra,2a08 <_write>
    5910:	57fd                	li	a5,-1
    5912:	00f51763          	bne	a0,a5,5920 <_write_r+0x26>
    5916:	b4c18793          	addi	a5,gp,-1204 # 200003bc <errno>
    591a:	439c                	lw	a5,0(a5)
    591c:	c391                	beqz	a5,5920 <_write_r+0x26>
    591e:	c01c                	sw	a5,0(s0)
    5920:	40b2                	lw	ra,12(sp)
    5922:	4422                	lw	s0,8(sp)
    5924:	0141                	addi	sp,sp,16
    5926:	8082                	ret

00005928 <_close_r>:
    5928:	1141                	addi	sp,sp,-16
    592a:	c422                	sw	s0,8(sp)
    592c:	842a                	mv	s0,a0
    592e:	852e                	mv	a0,a1
    5930:	b401a623          	sw	zero,-1204(gp) # 200003bc <errno>
    5934:	c606                	sw	ra,12(sp)
    5936:	20e1                	jal	59fe <_close>
    5938:	57fd                	li	a5,-1
    593a:	00f51763          	bne	a0,a5,5948 <_close_r+0x20>
    593e:	b4c18793          	addi	a5,gp,-1204 # 200003bc <errno>
    5942:	439c                	lw	a5,0(a5)
    5944:	c391                	beqz	a5,5948 <_close_r+0x20>
    5946:	c01c                	sw	a5,0(s0)
    5948:	40b2                	lw	ra,12(sp)
    594a:	4422                	lw	s0,8(sp)
    594c:	0141                	addi	sp,sp,16
    594e:	8082                	ret

00005950 <_fstat_r>:
    5950:	1141                	addi	sp,sp,-16
    5952:	c422                	sw	s0,8(sp)
    5954:	842a                	mv	s0,a0
    5956:	852e                	mv	a0,a1
    5958:	85b2                	mv	a1,a2
    595a:	b401a623          	sw	zero,-1204(gp) # 200003bc <errno>
    595e:	c606                	sw	ra,12(sp)
    5960:	206d                	jal	5a0a <_fstat>
    5962:	57fd                	li	a5,-1
    5964:	00f51763          	bne	a0,a5,5972 <_fstat_r+0x22>
    5968:	b4c18793          	addi	a5,gp,-1204 # 200003bc <errno>
    596c:	439c                	lw	a5,0(a5)
    596e:	c391                	beqz	a5,5972 <_fstat_r+0x22>
    5970:	c01c                	sw	a5,0(s0)
    5972:	40b2                	lw	ra,12(sp)
    5974:	4422                	lw	s0,8(sp)
    5976:	0141                	addi	sp,sp,16
    5978:	8082                	ret

0000597a <_isatty_r>:
    597a:	1141                	addi	sp,sp,-16
    597c:	c422                	sw	s0,8(sp)
    597e:	842a                	mv	s0,a0
    5980:	852e                	mv	a0,a1
    5982:	b401a623          	sw	zero,-1204(gp) # 200003bc <errno>
    5986:	c606                	sw	ra,12(sp)
    5988:	2079                	jal	5a16 <_isatty>
    598a:	57fd                	li	a5,-1
    598c:	00f51763          	bne	a0,a5,599a <_isatty_r+0x20>
    5990:	b4c18793          	addi	a5,gp,-1204 # 200003bc <errno>
    5994:	439c                	lw	a5,0(a5)
    5996:	c391                	beqz	a5,599a <_isatty_r+0x20>
    5998:	c01c                	sw	a5,0(s0)
    599a:	40b2                	lw	ra,12(sp)
    599c:	4422                	lw	s0,8(sp)
    599e:	0141                	addi	sp,sp,16
    59a0:	8082                	ret

000059a2 <_lseek_r>:
    59a2:	1141                	addi	sp,sp,-16
    59a4:	c422                	sw	s0,8(sp)
    59a6:	842a                	mv	s0,a0
    59a8:	852e                	mv	a0,a1
    59aa:	85b2                	mv	a1,a2
    59ac:	8636                	mv	a2,a3
    59ae:	b401a623          	sw	zero,-1204(gp) # 200003bc <errno>
    59b2:	c606                	sw	ra,12(sp)
    59b4:	20bd                	jal	5a22 <_lseek>
    59b6:	57fd                	li	a5,-1
    59b8:	00f51763          	bne	a0,a5,59c6 <_lseek_r+0x24>
    59bc:	b4c18793          	addi	a5,gp,-1204 # 200003bc <errno>
    59c0:	439c                	lw	a5,0(a5)
    59c2:	c391                	beqz	a5,59c6 <_lseek_r+0x24>
    59c4:	c01c                	sw	a5,0(s0)
    59c6:	40b2                	lw	ra,12(sp)
    59c8:	4422                	lw	s0,8(sp)
    59ca:	0141                	addi	sp,sp,16
    59cc:	8082                	ret

000059ce <__malloc_lock>:
    59ce:	8082                	ret

000059d0 <__malloc_unlock>:
    59d0:	8082                	ret

000059d2 <_read_r>:
    59d2:	1141                	addi	sp,sp,-16
    59d4:	c422                	sw	s0,8(sp)
    59d6:	842a                	mv	s0,a0
    59d8:	852e                	mv	a0,a1
    59da:	85b2                	mv	a1,a2
    59dc:	8636                	mv	a2,a3
    59de:	b401a623          	sw	zero,-1204(gp) # 200003bc <errno>
    59e2:	c606                	sw	ra,12(sp)
    59e4:	20a9                	jal	5a2e <_read>
    59e6:	57fd                	li	a5,-1
    59e8:	00f51763          	bne	a0,a5,59f6 <_read_r+0x24>
    59ec:	b4c18793          	addi	a5,gp,-1204 # 200003bc <errno>
    59f0:	439c                	lw	a5,0(a5)
    59f2:	c391                	beqz	a5,59f6 <_read_r+0x24>
    59f4:	c01c                	sw	a5,0(s0)
    59f6:	40b2                	lw	ra,12(sp)
    59f8:	4422                	lw	s0,8(sp)
    59fa:	0141                	addi	sp,sp,16
    59fc:	8082                	ret

000059fe <_close>:
    59fe:	05800793          	li	a5,88
    5a02:	b4f1a623          	sw	a5,-1204(gp) # 200003bc <errno>
    5a06:	557d                	li	a0,-1
    5a08:	8082                	ret

00005a0a <_fstat>:
    5a0a:	05800793          	li	a5,88
    5a0e:	b4f1a623          	sw	a5,-1204(gp) # 200003bc <errno>
    5a12:	557d                	li	a0,-1
    5a14:	8082                	ret

00005a16 <_isatty>:
    5a16:	05800793          	li	a5,88
    5a1a:	b4f1a623          	sw	a5,-1204(gp) # 200003bc <errno>
    5a1e:	4501                	li	a0,0
    5a20:	8082                	ret

00005a22 <_lseek>:
    5a22:	05800793          	li	a5,88
    5a26:	b4f1a623          	sw	a5,-1204(gp) # 200003bc <errno>
    5a2a:	557d                	li	a0,-1
    5a2c:	8082                	ret

00005a2e <_read>:
    5a2e:	05800793          	li	a5,88
    5a32:	b4f1a623          	sw	a5,-1204(gp) # 200003bc <errno>
    5a36:	557d                	li	a0,-1
    5a38:	8082                	ret
    5a3a:	0000                	unimp
    5a3c:	74737953          	0x74737953
    5a40:	6d65                	lui	s10,0x19
    5a42:	3a6b6c43          	fmadd.d	fs8,fs6,ft6,ft7,unknown
    5a46:	6425                	lui	s0,0x9
    5a48:	0a0d                	addi	s4,s4,3
    5a4a:	0000                	unimp
    5a4c:	6854                	flw	fa3,20(s0)
    5a4e:	7369                	lui	t1,0xffffa
    5a50:	6920                	flw	fs0,80(a0)
    5a52:	72702073          	csrr	zero,0x727
    5a56:	6e69                	lui	t3,0x1a
    5a58:	6674                	flw	fa3,76(a2)
    5a5a:	6520                	flw	fs0,72(a0)
    5a5c:	6178                	flw	fa4,68(a0)
    5a5e:	706d                	c.lui	zero,0xffffb
    5a60:	656c                	flw	fa1,76(a0)
    5a62:	000d                	c.nop	3
    5a64:	3025                	jal	528c <__sflush_r+0x80>
    5a66:	322e                	lhu	a1,34(a2)
    5a68:	2c66                	lhu	s1,30(s0)
    5a6a:	3025                	jal	5292 <__sflush_r+0x86>
    5a6c:	322e                	lhu	a1,34(a2)
    5a6e:	0d66                	slli	s10,s10,0x19
    5a70:	000a                	c.slli	zero,0x2
    5a72:	0000                	unimp
    5a74:	cccd                	beqz	s1,5b2e <sin_tab+0x86>
    5a76:	3ecc                	lbu	a1,29(a3)
    5a78:	8034                	lhu	a3,0(sp)
    5a7a:	d7a53ab7          	lui	s5,0xd7a53
    5a7e:	3b10                	lbu	a2,17(a4)
    5a80:	cccd                	beqz	s1,5b3a <sin_tab+0x92>
    5a82:	3dcc                	lbu	a1,29(a1)
    5a84:	d70a                	sw	sp,172(sp)
    5a86:	d70a3da3          	0xd70a3da3
    5a8a:	cccd3ba3          	0xcccd3ba3
    5a8e:	3e4c                	lbu	a1,29(a2)
    5a90:	38d1b717          	auipc	a4,0x38d1b
    5a94:	0000                	unimp
    5a96:	3f80                	lbu	s0,25(a5)
    5a98:	924a                	add	tp,tp,s2
    5a9a:	4432                	lw	s0,12(sp)
    5a9c:	0fda                	slli	t6,t6,0x16
    5a9e:	3fc9                	jal	5a70 <_read+0x42>
    5aa0:	40c90fdb          	0x40c90fdb
    5aa4:	42a2f983          	0x42a2f983

00005aa8 <sin_tab>:
    5aa8:	00000000 3c497529 3cc96edf 3d170e6f     ....)uI<.n.<o..=
    5ab8:	3d496031 3d7ba98f 3d96f438 3db00e6b     1`I=..{=8..=k..=
    5ac8:	3dc92147 3de22e5e 3dfb2fec 3e0a137f     G!.=^..=./.=...>
    5ad8:	3e168c69 3e22fd76 3e2f66a5 3e3bca97     i..>v.">.f/>..;>
    5ae8:	3e48294a 3e547d80 3e60c9da 3e6d0e56     J)H>.}T>..`>V.m>
    5af8:	3e794af5 3e82bd3c 3e88d10f 3e8edfa4     .Jy><..>...>...>
    5b08:	3e94e8fb 3e9aebc4 3ea0e7ff 3ea6defc     ...>...>...>...>
    5b18:	3eaccf6c 3eb2b94e 3eb89ca2 3ebe7818     l..>N..>...>.x.>
    5b28:	3ec44bb2 3eca18bd 3ecfddec 3ed599ed     .K.>...>...>...>
    5b38:	3edb4f61 3ee0fa59 3ee69ec3 3eec38b0     aO.>Y..>...>.8.>
    5b48:	3ef1c971 3ef75254 3efcd0bb 3f012253     q..>TR.>...>S".?
    5b58:	3f03d7b2 3f0687d3 3f0932b5 3f0bd85a     ...?...?.2.?Z..?
    5b68:	3f0e78c0 3f111340 3f13a882 3f1637df     .x.?@..?...?.7.?
    5b78:	3f18c155 3f1b44e5 3f1dc28f 3f203a54     U..?.D.?...?T: ?
    5b88:	3f22ab8a 3f2516db 3f277b9e 3f29d9d3     .."?..%?.{'?..)?
    5b98:	3f2c317b 3f2e81ed 3f30cc79 3f330fd0     {1,?...?y.0?..3?
    5ba8:	3f354bf1 3f378184 3f39afe2 3f3bd70a     .K5?..7?..9?..;?
    5bb8:	3f3df6fd 3f400f13 3f42209b 3f44299e     ..=?..@?. B?.)D?
    5bc8:	3f462c13 3f482603 3f4a18bd 3f4c039b     .,F?.&H?..J?..L?
    5bd8:	3f4de5f3 3f4fc116 3f5193b4 3f535e74     ..M?..O?..Q?t^S?
    5be8:	3f552157 3f56db0e 3f588d8f 3f5a36e3     W!U?..V?..X?.6Z?
    5bf8:	3f5bd7b2 3f5d70a4 3f5f0069 3f608851     ..[?.p]?i._?Q.`?
    5c08:	3f62070c 3f637c9a 3f64e9a3 3f664e27     ..b?.|c?..d?'Nf?
    5c18:	3f67a97e 3f68fc50 3f6a454e 3f6b85c6     ~.g?P.h?NEj?..k?
    5c28:	3f6cbd12 3f6deb31 3f6f1023 3f702b41     ..l?1.m?#.o?A+p?
    5c38:	3f713dd9 3f72469d 3f734635 3f743c9f     .=q?.Fr?5Fs?.<t?
    5c48:	3f752935 3f760c9e 3f76e632 3f77b69a     5)u?..v?2.v?..w?
    5c58:	3f787d2c 3f7939eb 3f79ed7c 3f7a9739     ,}x?.9y?|.y?9.z?
    5c68:	3f7b3722 3f7bcd36 3f7c5975 3f7cdc87     "7{?6.{?uY|?..|?
    5c78:	3f7d551d 3f7dc487 3f7e2974 3f7e8534     .U}?..}?t)~?4.~?
    5c88:	3f7ed677 3f7f1e8e 3f7f5c29 3f7f8fef     w.~?...?)\.?...?
    5c98:	3f7fba88 3f7fdaa5 3f7ff0ed 3f7ffd61     ...?...?...?a..?
    5ca8:	3f800000 3f7ff823 3f7fe719 3f7fcb92     ...?#..?...?...?
    5cb8:	3f7fa637 3f7f77af 3f7f3eab 3f7efbd2     7..?.w.?.>.?..~?
    5cc8:	3f7eaf25 3f7e58a3 3f7df84d 3f7d8e22     %.~?.X~?M.}?".}?
    5cd8:	3f7d1a22 3f7c9c4e 3f7c14a5 3f7b8327     ".}?N.|?..|?'.{?
    5ce8:	3f7ae7d5 3f7a4357 3f799503 3f78dcdb     ..z?WCz?..y?..x?
    5cf8:	3f781adf 3f774fb5 3f767ab7 3f759be5     ..x?.Ow?.zv?..u?
    5d08:	3f74b3e5 3f73c2b9 3f72c7b9 3f71c38b     ..t?..s?..r?..q?
    5d18:	3f70b631 3f6f9f02 3f6e7ea6 3f6d551d     1.p?..o?.~n?.Um?
    5d28:	3f6c2268 3f6ae686 3f69a21f 3f6853e3     h"l?..j?..i?.Sh?
    5d38:	3f66fd22 3f659d34 3f64341a 3f62c322     ".f?4.e?.4d?".b?
    5d48:	3f614856 3f5fc5ac 3f5e39d6 3f5ca57a     VHa?.._?.9^?z.\?
    5d58:	3f5b089a 3f596335 3f57b54a 3f55ff82     ..[?5cY?J.W?..U?
    5d68:	3f54408e 3f527a63 3f50abb4 3f4ed480     .@T?czR?..P?..N?
    5d78:	3f4cf56f 3f4b0f28 3f49205c 3f4729b3     o.L?(.K?\ I?.)G?
    5d88:	3f452bd4 3f432618 3f41187e 3f3f03b0     .+E?.&C?~.A?..??
    5d98:	3f3ce7ab 3f3ac472 3f38995b 3f3667b6     ..<?r.:?[.8?.g6?
    5da8:	3f342edc 3f31eecc 3f2fa82f 3f2d5a5c     ..4?..1?/./?\Z-?
    5db8:	3f2b05fb 3f28ab0d 3f264990 3f23e22e     ..+?..(?.I&?..#?
    5dc8:	3f217397 3f1eff19 3f1c84b6 3f1a03c5     .s!?...?...?...?
    5dd8:	3f177d95 3f14f0d8 3f125edd 3f0fc6fc     .}.?...?.^.?...?
    5de8:	3f0d2935 3f0a862f 3f07ddec 3f05306a     5).?/..?...?j0.?
    5df8:	3f027daa 3eff8b59 3efa1230 3ef48e8a     .}.?Y..>0..>...>
    5e08:	3eef0308 3ee96d09 3ee3cddd 3ede2585     ...>.m.>...>.%.>
    5e18:	3ed8754f 3ed2bd3c 3eccfbfc 3ec732df     Ou.><..>...>.2.>
    5e28:	3ec16335 3ebb8a5d 3eb5ac47 3eafc505     5c.>]..>G..>...>
    5e38:	3ea9d884 3ea3e575 3e9dea89 3e97ea60     ...>u..>...>`..>
    5e48:	3e91e4f7 3e8bd902 3e85c7ce 3e7f62b7     ...>...>...>.b.>
    5e58:	3e732df5 3e66eeb7 3e5aa4fd 3e4e5365     .-s>..f>..Z>eSN>
    5e68:	3e41f9f0 3e359b3d 3e29320e 3e1cc3a0     ..A>=.5>.2)>...>
    5e78:	3e104ff4 3e03d70a 3deeb1c4 3dd5a5b9     .O.>...>...=...=
    5e88:	3dbc98a2 3da3821b 3d8a6549 3d628566     ...=...=Ie.=f.b=
    5e98:	3d3037d6 3cfbc7f7 3c9715c6 3bc97453     .70=...<...<St.;
    5ea8:	bbc97453 bc9715c6 bcfbc7f7 bd3037d6     St...........70.
    5eb8:	bd628566 bd8a6549 bda3821b bdbc98a2     f.b.Ie..........
    5ec8:	bdd5a5b9 bdeeb1c4 be03d70a be104ff4     .............O..
    5ed8:	be1cc3a0 be29320e be359b3d be41f9f0     .....2).=.5...A.
    5ee8:	be4e5365 be5aa4fd be66eeb7 be732df5     eSN...Z...f..-s.
    5ef8:	be7f62b7 be85c7ce be8bd902 be91e4f7     .b..............
    5f08:	be97ea60 be9dea89 bea3e575 bea9d884     `.......u.......
    5f18:	beafc505 beb5ac47 bebb8a5d bec16335     ....G...]...5c..
    5f28:	bec732df beccfbfc bed2bd3c bed8754f     .2......<...Ou..
    5f38:	bede2585 bee3cddd bee96d09 beef0308     .%.......m......
    5f48:	bef48e8a befa1230 beff8b59 bf027daa     ....0...Y....}..
    5f58:	bf05306a bf07ddec bf0a862f bf0d2935     j0....../...5)..
    5f68:	bf0fc6fc bf125edd bf14f0d8 bf177d95     .....^.......}..
    5f78:	bf1a03c5 bf1c84b6 bf1eff19 bf217397     .............s!.
    5f88:	bf23e22e bf264990 bf28ab0d bf2b05fb     ..#..I&...(...+.
    5f98:	bf2d5a5c bf2fa82f bf31eecc bf342edc     \Z-././...1...4.
    5fa8:	bf3667b6 bf38995b bf3ac472 bf3ce7ab     .g6.[.8.r.:...<.
    5fb8:	bf3f03b0 bf41187e bf432618 bf452bd4     ..?.~.A..&C..+E.
    5fc8:	bf4729b3 bf49205c bf4b0f28 bf4cf56f     .)G.\ I.(.K.o.L.
    5fd8:	bf4ed480 bf50abb4 bf527a63 bf54408e     ..N...P.czR..@T.
    5fe8:	bf55ff82 bf57b54a bf596335 bf5b089a     ..U.J.W.5cY...[.
    5ff8:	bf5ca57a bf5e39d6 bf5fc5ac bf614856     z.\..9^..._.VHa.
    6008:	bf62c322 bf64341a bf659d34 bf66fd22     ".b..4d.4.e.".f.
    6018:	bf6853e3 bf69a21f bf6ae686 bf6c2268     .Sh...i...j.h"l.
    6028:	bf6d551d bf6e7ea6 bf6f9f02 bf70b631     .Um..~n...o.1.p.
    6038:	bf71c38b bf72c7b9 bf73c2b9 bf74b3e5     ..q...r...s...t.
    6048:	bf759be5 bf767ab7 bf774fb5 bf781adf     ..u..zv..Ow...x.
    6058:	bf78dcdb bf799503 bf7a4357 bf7ae7d5     ..x...y.WCz...z.
    6068:	bf7b8327 bf7c14a5 bf7c9c4e bf7d1a22     '.{...|.N.|.".}.
    6078:	bf7d8e22 bf7df84d bf7e58a3 bf7eaf25     ".}.M.}..X~.%.~.
    6088:	bf7efbd2 bf7f3eab bf7f77af bf7fa637     ..~..>...w..7...
    6098:	bf7fcb92 bf7fe719 bf7ff823 bf800000     ........#.......
    60a8:	bf7ffd61 bf7ff0ed bf7fdaa5 bf7fba88     a...............
    60b8:	bf7f8fef bf7f5c29 bf7f1e8e bf7ed677     ....)\......w.~.
    60c8:	bf7e8534 bf7e2974 bf7dc487 bf7d551d     4.~.t)~...}..U}.
    60d8:	bf7cdc87 bf7c5975 bf7bcd36 bf7b3722     ..|.uY|.6.{."7{.
    60e8:	bf7a9739 bf79ed7c bf7939eb bf787d2c     9.z.|.y..9y.,}x.
    60f8:	bf77b69a bf76e632 bf760c9e bf752935     ..w.2.v...v.5)u.
    6108:	bf743c9f bf734635 bf72469d bf713dd9     .<t.5Fs..Fr..=q.
    6118:	bf702b41 bf6f1023 bf6deb31 bf6cbd12     A+p.#.o.1.m...l.
    6128:	bf6b85c6 bf6a454e bf68fc50 bf67a97e     ..k.NEj.P.h.~.g.
    6138:	bf664e27 bf64e9a3 bf637c9a bf62070c     'Nf...d..|c...b.
    6148:	bf608851 bf5f0069 bf5d70a4 bf5bd7b2     Q.`.i._..p]...[.
    6158:	bf5a36e3 bf588d8f bf56db0e bf552157     .6Z...X...V.W!U.
    6168:	bf535e74 bf5193b4 bf4fc116 bf4de5f3     t^S...Q...O...M.
    6178:	bf4c039b bf4a18bd bf482603 bf462c13     ..L...J..&H..,F.
    6188:	bf44299e bf42209b bf400f13 bf3df6fd     .)D.. B...@...=.
    6198:	bf3bd70a bf39afe2 bf378184 bf354bf1     ..;...9...7..K5.
    61a8:	bf330fd0 bf30cc79 bf2e81ed bf2c317b     ..3.y.0.....{1,.
    61b8:	bf29d9d3 bf277b9e bf2516db bf22ab8a     ..)..{'...%...".
    61c8:	bf203a54 bf1dc28f bf1b44e5 bf18c155     T: ......D..U...
    61d8:	bf1637df bf13a882 bf111340 bf0e78c0     .7......@....x..
    61e8:	bf0bd85a bf0932b5 bf0687d3 bf03d7b2     Z....2..........
    61f8:	bf012253 befcd0bb bef75254 bef1c971     S"......TR..q...
    6208:	beec38b0 bee69ec3 bee0fa59 bedb4f61     .8......Y...aO..
    6218:	bed599ed becfddec beca18bd bec44bb2     .............K..
    6228:	bebe7818 beb89ca2 beb2b94e beaccf6c     .x......N...l...
    6238:	bea6defc bea0e7ff be9aebc4 be94e8fb     ................
    6248:	be8edfa4 be88d10f be82bd3c be794af5     ........<....Jy.
    6258:	be6d0e56 be60c9da be547d80 be48294a     V.m...`..}T.J)H.
    6268:	be3bca97 be2f66a5 be22fd76 be168c69     ..;..f/.v.".i...
    6278:	be0a137f bdfb2fec bde22e5e bdc92147     ...../..^...G!..
    6288:	bdb00e6b bd96f438 bd7ba98f bd496031     k...8.....{.1`I.
    6298:	bd170e6f bcc96edf bc497529 00000000     o....n..)uI.....
    62a8:	00002778 0000279a 00002804 0000282a     x'...'...(..*(..
    62b8:	00002848 0000288c 0000289a 0000294c     H(...(...(..L)..
    62c8:	00002952 00002962 00002970 3f99999a     R)..b)..p).....?
    62d8:	3e99999a 41200000 3f19999a 45e10000     ...>.. A...?...E
    62e8:	41400000 40533333 39800000 40a00000     ..@A33S@...9...@
    62f8:	3d4ccccd 40000000 3fddb3d7 3f000000     ..L=...@...?...?
    6308:	bfddb3d7 3f5db3d7 bfc00000 3fc00000     ......]?.......?
    6318:	3e800000 6c756e28 0000296c ffffd8f4     ...>(null)......
    6328:	ffffd7ae ffffd7ae ffffd7ac ffffd7b4     ................
    6338:	ffffd7b4 ffffdbe0 ffffd7ac ffffd7b4     ................
    6348:	ffffdbe0 ffffd7b4 ffffd7ac ffffd8e0     ................
    6358:	ffffd8e0 ffffd8e0 ffffd8d2              ............

00006364 <__clz_tab>:
    6364:	02020100 03030303 04040404 04040404     ................
    6374:	05050505 05050505 05050505 05050505     ................
    6384:	06060606 06060606 06060606 06060606     ................
    6394:	06060606 06060606 06060606 06060606     ................
    63a4:	07070707 07070707 07070707 07070707     ................
    63b4:	07070707 07070707 07070707 07070707     ................
    63c4:	07070707 07070707 07070707 07070707     ................
    63d4:	07070707 07070707 07070707 07070707     ................
    63e4:	08080808 08080808 08080808 08080808     ................
    63f4:	08080808 08080808 08080808 08080808     ................
    6404:	08080808 08080808 08080808 08080808     ................
    6414:	08080808 08080808 08080808 08080808     ................
    6424:	08080808 08080808 08080808 08080808     ................
    6434:	08080808 08080808 08080808 08080808     ................
    6444:	08080808 08080808 08080808 08080808     ................
    6454:	08080808 08080808 08080808 08080808     ................

00006464 <__sf_fake_stderr>:
	...

00006484 <__sf_fake_stdin>:
	...

000064a4 <__sf_fake_stdout>:
	...
